
os:     file format elf32-littleriscv


Disassembly of section .text:

00000000 <_start>:
# # generated - do not edit
# .global _start
# _start:
#     li sp, 0x7ffc
   0:	00008137          	lui	sp,0x8
   4:	ffc10113          	addi	sp,sp,-4 # 7ffc <__global_pointer$+0x5b6c>
#     jal ra, run
   8:	1d1000ef          	jal	9d8 <run>

0000000c <uart_send_char>:
# 
# /* =========================================================
#    UART
# ========================================================= */
# 
# void uart_send_char(char ch) {
   c:	fe010113          	addi	sp,sp,-32
  10:	00112e23          	sw	ra,28(sp)
  14:	00812c23          	sw	s0,24(sp)
  18:	02010413          	addi	s0,sp,32
  1c:	00050793          	mv	a5,a0
  20:	fef407a3          	sb	a5,-17(s0)
# 
#     while (*uart_out);
  24:	00000013          	nop
  28:	000027b7          	lui	a5,0x2
  2c:	c947a783          	lw	a5,-876(a5) # 1c94 <uart_out>
  30:	0007c783          	lbu	a5,0(a5)
  34:	0ff7f793          	zext.b	a5,a5
  38:	fe0798e3          	bnez	a5,28 <uart_send_char+0x1c>
# 
#     *uart_out = ch;
  3c:	000027b7          	lui	a5,0x2
  40:	c947a783          	lw	a5,-876(a5) # 1c94 <uart_out>
  44:	fef44703          	lbu	a4,-17(s0)
  48:	00e78023          	sb	a4,0(a5)
# }
  4c:	00000013          	nop
  50:	01c12083          	lw	ra,28(sp)
  54:	01812403          	lw	s0,24(sp)
  58:	02010113          	addi	sp,sp,32
  5c:	00008067          	ret

00000060 <uart_send_str>:
# 
# void uart_send_str(const char *str) {
  60:	fe010113          	addi	sp,sp,-32
  64:	00112e23          	sw	ra,28(sp)
  68:	00812c23          	sw	s0,24(sp)
  6c:	02010413          	addi	s0,sp,32
  70:	fea42623          	sw	a0,-20(s0)
# 
#     while (*str) {
  74:	0200006f          	j	94 <uart_send_str+0x34>
# 
#         uart_send_char(*str++);
  78:	fec42783          	lw	a5,-20(s0)
  7c:	00178713          	addi	a4,a5,1
  80:	fee42623          	sw	a4,-20(s0)
  84:	0007c783          	lbu	a5,0(a5)
  88:	00078513          	mv	a0,a5
  8c:	00000097          	auipc	ra,0x0
  90:	f80080e7          	jalr	-128(ra) # c <uart_send_char>
#     while (*str) {
  94:	fec42783          	lw	a5,-20(s0)
  98:	0007c783          	lbu	a5,0(a5)
  9c:	fc079ee3          	bnez	a5,78 <uart_send_str+0x18>
# 
#     }
# }
  a0:	00000013          	nop
  a4:	00000013          	nop
  a8:	01c12083          	lw	ra,28(sp)
  ac:	01812403          	lw	s0,24(sp)
  b0:	02010113          	addi	sp,sp,32
  b4:	00008067          	ret

000000b8 <uart_read_char>:
# 
# char uart_read_char() {
  b8:	fe010113          	addi	sp,sp,-32
  bc:	00112e23          	sw	ra,28(sp)
  c0:	00812c23          	sw	s0,24(sp)
  c4:	02010413          	addi	s0,sp,32
# 
#     char ch;
# 
#     while ((ch = *uart_in) == 0);
  c8:	00000013          	nop
  cc:	000027b7          	lui	a5,0x2
  d0:	c987a783          	lw	a5,-872(a5) # 1c98 <uart_in>
  d4:	0007c783          	lbu	a5,0(a5)
  d8:	fef407a3          	sb	a5,-17(s0)
  dc:	fef44783          	lbu	a5,-17(s0)
  e0:	fe0786e3          	beqz	a5,cc <uart_read_char+0x14>
# 
#     return ch;
  e4:	fef44783          	lbu	a5,-17(s0)
# }
  e8:	00078513          	mv	a0,a5
  ec:	01c12083          	lw	ra,28(sp)
  f0:	01812403          	lw	s0,24(sp)
  f4:	02010113          	addi	sp,sp,32
  f8:	00008067          	ret

000000fc <uart_send_hex_nibble>:
# 
# void uart_send_hex_nibble(unsigned char nibble) {
  fc:	fe010113          	addi	sp,sp,-32
 100:	00112e23          	sw	ra,28(sp)
 104:	00812c23          	sw	s0,24(sp)
 108:	02010413          	addi	s0,sp,32
 10c:	00050793          	mv	a5,a0
 110:	fef407a3          	sb	a5,-17(s0)
# 
#     if (nibble < 10)
 114:	fef44703          	lbu	a4,-17(s0)
 118:	00900793          	li	a5,9
 11c:	02e7e063          	bltu	a5,a4,13c <uart_send_hex_nibble+0x40>
#         uart_send_char('0' + nibble);
 120:	fef44783          	lbu	a5,-17(s0)
 124:	03078793          	addi	a5,a5,48
 128:	0ff7f793          	zext.b	a5,a5
 12c:	00078513          	mv	a0,a5
 130:	00000097          	auipc	ra,0x0
 134:	edc080e7          	jalr	-292(ra) # c <uart_send_char>
#     else
#         uart_send_char('A' + nibble - 10);
# }
 138:	01c0006f          	j	154 <uart_send_hex_nibble+0x58>
#         uart_send_char('A' + nibble - 10);
 13c:	fef44783          	lbu	a5,-17(s0)
 140:	03778793          	addi	a5,a5,55
 144:	0ff7f793          	zext.b	a5,a5
 148:	00078513          	mv	a0,a5
 14c:	00000097          	auipc	ra,0x0
 150:	ec0080e7          	jalr	-320(ra) # c <uart_send_char>
# }
 154:	00000013          	nop
 158:	01c12083          	lw	ra,28(sp)
 15c:	01812403          	lw	s0,24(sp)
 160:	02010113          	addi	sp,sp,32
 164:	00008067          	ret

00000168 <uart_send_hex_byte>:
# 
# void uart_send_hex_byte(unsigned char value) {
 168:	fe010113          	addi	sp,sp,-32
 16c:	00112e23          	sw	ra,28(sp)
 170:	00812c23          	sw	s0,24(sp)
 174:	02010413          	addi	s0,sp,32
 178:	00050793          	mv	a5,a0
 17c:	fef407a3          	sb	a5,-17(s0)
# 
#     uart_send_hex_nibble((value >> 4) & 0x0F);
 180:	fef44783          	lbu	a5,-17(s0)
 184:	0047d793          	srli	a5,a5,0x4
 188:	0ff7f793          	zext.b	a5,a5
 18c:	00078513          	mv	a0,a5
 190:	00000097          	auipc	ra,0x0
 194:	f6c080e7          	jalr	-148(ra) # fc <uart_send_hex_nibble>
# 
#     uart_send_hex_nibble(value & 0x0F);
 198:	fef44783          	lbu	a5,-17(s0)
 19c:	00f7f793          	andi	a5,a5,15
 1a0:	0ff7f793          	zext.b	a5,a5
 1a4:	00078513          	mv	a0,a5
 1a8:	00000097          	auipc	ra,0x0
 1ac:	f54080e7          	jalr	-172(ra) # fc <uart_send_hex_nibble>
# }
 1b0:	00000013          	nop
 1b4:	01c12083          	lw	ra,28(sp)
 1b8:	01812403          	lw	s0,24(sp)
 1bc:	02010113          	addi	sp,sp,32
 1c0:	00008067          	ret

000001c4 <print_int>:
# 
# void print_int(int num) {
 1c4:	fd010113          	addi	sp,sp,-48
 1c8:	02112623          	sw	ra,44(sp)
 1cc:	02812423          	sw	s0,40(sp)
 1d0:	03010413          	addi	s0,sp,48
 1d4:	fca42e23          	sw	a0,-36(s0)
# 
#     char buf[12];
# 
#     int i = 0;
 1d8:	fe042623          	sw	zero,-20(s0)
# 
#     if (num == 0) {
 1dc:	fdc42783          	lw	a5,-36(s0)
 1e0:	00079a63          	bnez	a5,1f4 <print_int+0x30>
# 
#         uart_send_char('0');
 1e4:	03000513          	li	a0,48
 1e8:	00000097          	auipc	ra,0x0
 1ec:	e24080e7          	jalr	-476(ra) # c <uart_send_char>
 1f0:	0bc0006f          	j	2ac <print_int+0xe8>
# 
#         return;
#     }
# 
#     if (num < 0) {
 1f4:	fdc42783          	lw	a5,-36(s0)
 1f8:	0607dc63          	bgez	a5,270 <print_int+0xac>
# 
#         uart_send_char('-');
 1fc:	02d00513          	li	a0,45
 200:	00000097          	auipc	ra,0x0
 204:	e0c080e7          	jalr	-500(ra) # c <uart_send_char>
# 
#         num = -num;
 208:	fdc42783          	lw	a5,-36(s0)
 20c:	40f007b3          	neg	a5,a5
 210:	fcf42e23          	sw	a5,-36(s0)
#     }
# 
#     while (num > 0) {
 214:	05c0006f          	j	270 <print_int+0xac>
# 
#         buf[i++] = '0' + (num % 10);
 218:	fdc42783          	lw	a5,-36(s0)
 21c:	00a00593          	li	a1,10
 220:	00078513          	mv	a0,a5
 224:	00001097          	auipc	ra,0x1
 228:	918080e7          	jalr	-1768(ra) # b3c <__modsi3>
 22c:	00050793          	mv	a5,a0
 230:	0ff7f713          	zext.b	a4,a5
 234:	fec42783          	lw	a5,-20(s0)
 238:	00178693          	addi	a3,a5,1
 23c:	fed42623          	sw	a3,-20(s0)
 240:	03070713          	addi	a4,a4,48
 244:	0ff77713          	zext.b	a4,a4
 248:	ff078793          	addi	a5,a5,-16
 24c:	008787b3          	add	a5,a5,s0
 250:	fee78823          	sb	a4,-16(a5)
# 
#         num /= 10;
 254:	fdc42783          	lw	a5,-36(s0)
 258:	00a00593          	li	a1,10
 25c:	00078513          	mv	a0,a5
 260:	00001097          	auipc	ra,0x1
 264:	858080e7          	jalr	-1960(ra) # ab8 <__divsi3>
 268:	00050793          	mv	a5,a0
 26c:	fcf42e23          	sw	a5,-36(s0)
#     while (num > 0) {
 270:	fdc42783          	lw	a5,-36(s0)
 274:	faf042e3          	bgtz	a5,218 <print_int+0x54>
#     }
# 
#     while (i > 0) {
 278:	02c0006f          	j	2a4 <print_int+0xe0>
# 
#         uart_send_char(buf[--i]);
 27c:	fec42783          	lw	a5,-20(s0)
 280:	fff78793          	addi	a5,a5,-1
 284:	fef42623          	sw	a5,-20(s0)
 288:	fec42783          	lw	a5,-20(s0)
 28c:	ff078793          	addi	a5,a5,-16
 290:	008787b3          	add	a5,a5,s0
 294:	ff07c783          	lbu	a5,-16(a5)
 298:	00078513          	mv	a0,a5
 29c:	00000097          	auipc	ra,0x0
 2a0:	d70080e7          	jalr	-656(ra) # c <uart_send_char>
#     while (i > 0) {
 2a4:	fec42783          	lw	a5,-20(s0)
 2a8:	fcf04ae3          	bgtz	a5,27c <print_int+0xb8>
#     }
# }
 2ac:	02c12083          	lw	ra,44(sp)
 2b0:	02812403          	lw	s0,40(sp)
 2b4:	03010113          	addi	sp,sp,48
 2b8:	00008067          	ret

000002bc <delay_ms>:
# 
# void delay_ms(unsigned int ms) {
 2bc:	fd010113          	addi	sp,sp,-48
 2c0:	02112623          	sw	ra,44(sp)
 2c4:	02812423          	sw	s0,40(sp)
 2c8:	03010413          	addi	s0,sp,48
 2cc:	fca42e23          	sw	a0,-36(s0)
# 
#     volatile unsigned int i;
#     volatile unsigned int j;
# 
#     for (i = 0; i < ms; i++) {
 2d0:	fe042623          	sw	zero,-20(s0)
 2d4:	0300006f          	j	304 <delay_ms+0x48>
# 
#         for (j = 0; j < 1000; j++);
 2d8:	fe042423          	sw	zero,-24(s0)
 2dc:	0100006f          	j	2ec <delay_ms+0x30>
 2e0:	fe842783          	lw	a5,-24(s0)
 2e4:	00178793          	addi	a5,a5,1
 2e8:	fef42423          	sw	a5,-24(s0)
 2ec:	fe842703          	lw	a4,-24(s0)
 2f0:	3e700793          	li	a5,999
 2f4:	fee7f6e3          	bgeu	a5,a4,2e0 <delay_ms+0x24>
#     for (i = 0; i < ms; i++) {
 2f8:	fec42783          	lw	a5,-20(s0)
 2fc:	00178793          	addi	a5,a5,1
 300:	fef42623          	sw	a5,-20(s0)
 304:	fec42783          	lw	a5,-20(s0)
 308:	fdc42703          	lw	a4,-36(s0)
 30c:	fce7e6e3          	bltu	a5,a4,2d8 <delay_ms+0x1c>
# 
#     }
# }
 310:	00000013          	nop
 314:	00000013          	nop
 318:	02c12083          	lw	ra,44(sp)
 31c:	02812403          	lw	s0,40(sp)
 320:	03010113          	addi	sp,sp,48
 324:	00008067          	ret

00000328 <i2c_wait>:
# read:
# bit[1] = nack
# bit[0] = busy
# */
# 
# void i2c_wait() {
 328:	ff010113          	addi	sp,sp,-16
 32c:	00112623          	sw	ra,12(sp)
 330:	00812423          	sw	s0,8(sp)
 334:	01010413          	addi	s0,sp,16
# 
#     while ((*i2c_ctrl) & 0x01);
 338:	00000013          	nop
 33c:	000027b7          	lui	a5,0x2
 340:	ca07a783          	lw	a5,-864(a5) # 1ca0 <i2c_ctrl>
 344:	0007c783          	lbu	a5,0(a5)
 348:	0ff7f793          	zext.b	a5,a5
 34c:	0017f793          	andi	a5,a5,1
 350:	fe0796e3          	bnez	a5,33c <i2c_wait+0x14>
# }
 354:	00000013          	nop
 358:	00000013          	nop
 35c:	00c12083          	lw	ra,12(sp)
 360:	00812403          	lw	s0,8(sp)
 364:	01010113          	addi	sp,sp,16
 368:	00008067          	ret

0000036c <i2c_write_reg>:
# 
# void i2c_write_reg(
#     unsigned char slave,
#     unsigned char reg,
#     unsigned char value
# ) {
 36c:	fd010113          	addi	sp,sp,-48
 370:	02112623          	sw	ra,44(sp)
 374:	02812423          	sw	s0,40(sp)
 378:	03010413          	addi	s0,sp,48
 37c:	00050793          	mv	a5,a0
 380:	00058693          	mv	a3,a1
 384:	00060713          	mv	a4,a2
 388:	fcf40fa3          	sb	a5,-33(s0)
 38c:	00068793          	mv	a5,a3
 390:	fcf40f23          	sb	a5,-34(s0)
 394:	00070793          	mv	a5,a4
 398:	fcf40ea3          	sb	a5,-35(s0)
# 
#     /*
#        set sub-address
#     */
# 
#     *i2c_reg = reg;
 39c:	000027b7          	lui	a5,0x2
 3a0:	ca47a783          	lw	a5,-860(a5) # 1ca4 <i2c_reg>
 3a4:	fde44703          	lbu	a4,-34(s0)
 3a8:	00e78023          	sb	a4,0(a5)
# 
#     /*
#        data byte
#     */
# 
#     *i2c_data = value;
 3ac:	000027b7          	lui	a5,0x2
 3b0:	c9c7a783          	lw	a5,-868(a5) # 1c9c <i2c_data>
 3b4:	fdd44703          	lbu	a4,-35(s0)
 3b8:	00e78023          	sb	a4,0(a5)
#     /*
#        build ctrl
#     */
# 
#     ctrl =
#         ((unsigned short)slave << 2) |
 3bc:	fdf44783          	lbu	a5,-33(s0)
 3c0:	01079793          	slli	a5,a5,0x10
 3c4:	4107d793          	srai	a5,a5,0x10
 3c8:	00279793          	slli	a5,a5,0x2
 3cc:	01079793          	slli	a5,a5,0x10
 3d0:	4107d793          	srai	a5,a5,0x10
 3d4:	0017e793          	ori	a5,a5,1
 3d8:	01079793          	slli	a5,a5,0x10
 3dc:	4107d793          	srai	a5,a5,0x10
#     ctrl =
 3e0:	fef41723          	sh	a5,-18(s0)
# 
#     /*
#        start transfer
#     */
# 
#     *((volatile unsigned short *)i2c_ctrl) = ctrl;
 3e4:	000027b7          	lui	a5,0x2
 3e8:	ca07a783          	lw	a5,-864(a5) # 1ca0 <i2c_ctrl>
 3ec:	fee45703          	lhu	a4,-18(s0)
 3f0:	00e79023          	sh	a4,0(a5)
# 
#     i2c_wait();
 3f4:	00000097          	auipc	ra,0x0
 3f8:	f34080e7          	jalr	-204(ra) # 328 <i2c_wait>
# 
#     /*
#        check nack
#     */
# 
#     if ((*i2c_ctrl) & 0x02) {
 3fc:	000027b7          	lui	a5,0x2
 400:	ca07a783          	lw	a5,-864(a5) # 1ca0 <i2c_ctrl>
 404:	0007c783          	lbu	a5,0(a5)
 408:	0ff7f793          	zext.b	a5,a5
 40c:	0027f793          	andi	a5,a5,2
 410:	00078a63          	beqz	a5,424 <i2c_write_reg+0xb8>
# 
#         uart_send_str("I2C NACK\r\n");
 414:	000017b7          	lui	a5,0x1
 418:	b6c78513          	addi	a0,a5,-1172 # b6c <__modsi3+0x30>
 41c:	00000097          	auipc	ra,0x0
 420:	c44080e7          	jalr	-956(ra) # 60 <uart_send_str>
#     }
# }
 424:	00000013          	nop
 428:	02c12083          	lw	ra,44(sp)
 42c:	02812403          	lw	s0,40(sp)
 430:	03010113          	addi	sp,sp,48
 434:	00008067          	ret

00000438 <i2c_read_reg>:
# 
# unsigned char i2c_read_reg(
#     unsigned char slave,
#     unsigned char reg
# ) {
 438:	fd010113          	addi	sp,sp,-48
 43c:	02112623          	sw	ra,44(sp)
 440:	02812423          	sw	s0,40(sp)
 444:	03010413          	addi	s0,sp,48
 448:	00050793          	mv	a5,a0
 44c:	00058713          	mv	a4,a1
 450:	fcf40fa3          	sb	a5,-33(s0)
 454:	00070793          	mv	a5,a4
 458:	fcf40f23          	sb	a5,-34(s0)
# 
#     /*
#        set sub-address
#     */
# 
#     *i2c_reg = reg;
 45c:	000027b7          	lui	a5,0x2
 460:	ca47a783          	lw	a5,-860(a5) # 1ca4 <i2c_reg>
 464:	fde44703          	lbu	a4,-34(s0)
 468:	00e78023          	sb	a4,0(a5)
#     /*
#        read transaction
#     */
# 
#     ctrl =
#         ((unsigned short)slave << 2) |
 46c:	fdf44783          	lbu	a5,-33(s0)
 470:	01079793          	slli	a5,a5,0x10
 474:	4107d793          	srai	a5,a5,0x10
 478:	00279793          	slli	a5,a5,0x2
 47c:	01079793          	slli	a5,a5,0x10
 480:	4107d793          	srai	a5,a5,0x10
 484:	0037e793          	ori	a5,a5,3
 488:	01079793          	slli	a5,a5,0x10
 48c:	4107d793          	srai	a5,a5,0x10
#     ctrl =
 490:	fef41723          	sh	a5,-18(s0)
#         0x03;
# 
#     *((volatile unsigned short *)i2c_ctrl) = ctrl;
 494:	000027b7          	lui	a5,0x2
 498:	ca07a783          	lw	a5,-864(a5) # 1ca0 <i2c_ctrl>
 49c:	fee45703          	lhu	a4,-18(s0)
 4a0:	00e79023          	sh	a4,0(a5)
# 
#     i2c_wait();
 4a4:	00000097          	auipc	ra,0x0
 4a8:	e84080e7          	jalr	-380(ra) # 328 <i2c_wait>
# 
#     if ((*i2c_ctrl) & 0x02) {
 4ac:	000027b7          	lui	a5,0x2
 4b0:	ca07a783          	lw	a5,-864(a5) # 1ca0 <i2c_ctrl>
 4b4:	0007c783          	lbu	a5,0(a5)
 4b8:	0ff7f793          	zext.b	a5,a5
 4bc:	0027f793          	andi	a5,a5,2
 4c0:	00078e63          	beqz	a5,4dc <i2c_read_reg+0xa4>
# 
#         uart_send_str("I2C NACK\r\n");
 4c4:	000017b7          	lui	a5,0x1
 4c8:	b6c78513          	addi	a0,a5,-1172 # b6c <__modsi3+0x30>
 4cc:	00000097          	auipc	ra,0x0
 4d0:	b94080e7          	jalr	-1132(ra) # 60 <uart_send_str>
# 
#         return 0xFF;
 4d4:	0ff00793          	li	a5,255
 4d8:	0140006f          	j	4ec <i2c_read_reg+0xb4>
#     }
# 
#     return *i2c_data;
 4dc:	000027b7          	lui	a5,0x2
 4e0:	c9c7a783          	lw	a5,-868(a5) # 1c9c <i2c_data>
 4e4:	0007c783          	lbu	a5,0(a5)
 4e8:	0ff7f793          	zext.b	a5,a5
# }
 4ec:	00078513          	mv	a0,a5
 4f0:	02c12083          	lw	ra,44(sp)
 4f4:	02812403          	lw	s0,40(sp)
 4f8:	03010113          	addi	sp,sp,48
 4fc:	00008067          	ret

00000500 <bmp280_read16_LE>:
# 
# /* =========================================================
#    BMP280
# ========================================================= */
# 
# unsigned short bmp280_read16_LE(unsigned char reg) {
 500:	fd010113          	addi	sp,sp,-48
 504:	02112623          	sw	ra,44(sp)
 508:	02812423          	sw	s0,40(sp)
 50c:	03010413          	addi	s0,sp,48
 510:	00050793          	mv	a5,a0
 514:	fcf40fa3          	sb	a5,-33(s0)
# 
#     unsigned char lsb;
#     unsigned char msb;
# 
#     lsb = i2c_read_reg(BMP280_ADDR, reg);
 518:	fdf44783          	lbu	a5,-33(s0)
 51c:	00078593          	mv	a1,a5
 520:	07600513          	li	a0,118
 524:	00000097          	auipc	ra,0x0
 528:	f14080e7          	jalr	-236(ra) # 438 <i2c_read_reg>
 52c:	00050793          	mv	a5,a0
 530:	fef407a3          	sb	a5,-17(s0)
# 
#     msb = i2c_read_reg(BMP280_ADDR, reg + 1);
 534:	fdf44783          	lbu	a5,-33(s0)
 538:	00178793          	addi	a5,a5,1
 53c:	0ff7f793          	zext.b	a5,a5
 540:	00078593          	mv	a1,a5
 544:	07600513          	li	a0,118
 548:	00000097          	auipc	ra,0x0
 54c:	ef0080e7          	jalr	-272(ra) # 438 <i2c_read_reg>
 550:	00050793          	mv	a5,a0
 554:	fef40723          	sb	a5,-18(s0)
# 
#     return ((unsigned short)msb << 8) | lsb;
 558:	fee44783          	lbu	a5,-18(s0)
 55c:	01079793          	slli	a5,a5,0x10
 560:	4107d793          	srai	a5,a5,0x10
 564:	00879793          	slli	a5,a5,0x8
 568:	01079713          	slli	a4,a5,0x10
 56c:	41075713          	srai	a4,a4,0x10
 570:	fef44783          	lbu	a5,-17(s0)
 574:	01079793          	slli	a5,a5,0x10
 578:	4107d793          	srai	a5,a5,0x10
 57c:	00f767b3          	or	a5,a4,a5
 580:	01079793          	slli	a5,a5,0x10
 584:	4107d793          	srai	a5,a5,0x10
 588:	01079793          	slli	a5,a5,0x10
 58c:	0107d793          	srli	a5,a5,0x10
# }
 590:	00078513          	mv	a0,a5
 594:	02c12083          	lw	ra,44(sp)
 598:	02812403          	lw	s0,40(sp)
 59c:	03010113          	addi	sp,sp,48
 5a0:	00008067          	ret

000005a4 <bmp280_readS16_LE>:
# 
# short bmp280_readS16_LE(unsigned char reg) {
 5a4:	fe010113          	addi	sp,sp,-32
 5a8:	00112e23          	sw	ra,28(sp)
 5ac:	00812c23          	sw	s0,24(sp)
 5b0:	02010413          	addi	s0,sp,32
 5b4:	00050793          	mv	a5,a0
 5b8:	fef407a3          	sb	a5,-17(s0)
# 
#     return (short)bmp280_read16_LE(reg);
 5bc:	fef44783          	lbu	a5,-17(s0)
 5c0:	00078513          	mv	a0,a5
 5c4:	00000097          	auipc	ra,0x0
 5c8:	f3c080e7          	jalr	-196(ra) # 500 <bmp280_read16_LE>
 5cc:	00050793          	mv	a5,a0
 5d0:	01079793          	slli	a5,a5,0x10
 5d4:	4107d793          	srai	a5,a5,0x10
# }
 5d8:	00078513          	mv	a0,a5
 5dc:	01c12083          	lw	ra,28(sp)
 5e0:	01812403          	lw	s0,24(sp)
 5e4:	02010113          	addi	sp,sp,32
 5e8:	00008067          	ret

000005ec <bmp280_read_calibration>:
# 
# void bmp280_read_calibration() {
 5ec:	ff010113          	addi	sp,sp,-16
 5f0:	00112623          	sw	ra,12(sp)
 5f4:	00812423          	sw	s0,8(sp)
 5f8:	01010413          	addi	s0,sp,16
# 
#     dig_T1 = bmp280_read16_LE(0x88);
 5fc:	08800513          	li	a0,136
 600:	00000097          	auipc	ra,0x0
 604:	f00080e7          	jalr	-256(ra) # 500 <bmp280_read16_LE>
 608:	00050793          	mv	a5,a0
 60c:	00078713          	mv	a4,a5
 610:	000027b7          	lui	a5,0x2
 614:	cae79423          	sh	a4,-856(a5) # 1ca8 <dig_T1>
# 
#     dig_T2 = bmp280_readS16_LE(0x8A);
 618:	08a00513          	li	a0,138
 61c:	00000097          	auipc	ra,0x0
 620:	f88080e7          	jalr	-120(ra) # 5a4 <bmp280_readS16_LE>
 624:	00050793          	mv	a5,a0
 628:	00078713          	mv	a4,a5
 62c:	000027b7          	lui	a5,0x2
 630:	cae79523          	sh	a4,-854(a5) # 1caa <dig_T2>
# 
#     dig_T3 = bmp280_readS16_LE(0x8C);
 634:	08c00513          	li	a0,140
 638:	00000097          	auipc	ra,0x0
 63c:	f6c080e7          	jalr	-148(ra) # 5a4 <bmp280_readS16_LE>
 640:	00050793          	mv	a5,a0
 644:	00078713          	mv	a4,a5
 648:	000027b7          	lui	a5,0x2
 64c:	cae79623          	sh	a4,-852(a5) # 1cac <dig_T3>
# 
#     uart_send_str("Calibration Loaded\r\n");
 650:	000017b7          	lui	a5,0x1
 654:	b7878513          	addi	a0,a5,-1160 # b78 <__modsi3+0x3c>
 658:	00000097          	auipc	ra,0x0
 65c:	a08080e7          	jalr	-1528(ra) # 60 <uart_send_str>
# }
 660:	00000013          	nop
 664:	00c12083          	lw	ra,12(sp)
 668:	00812403          	lw	s0,8(sp)
 66c:	01010113          	addi	sp,sp,16
 670:	00008067          	ret

00000674 <bmp280_init>:
# 
# void bmp280_init() {
 674:	fe010113          	addi	sp,sp,-32
 678:	00112e23          	sw	ra,28(sp)
 67c:	00812c23          	sw	s0,24(sp)
 680:	02010413          	addi	s0,sp,32
# 
#     unsigned char id;
# 
#     uart_send_str("=== BMP280 INIT ===\r\n");
 684:	000017b7          	lui	a5,0x1
 688:	b9078513          	addi	a0,a5,-1136 # b90 <__modsi3+0x54>
 68c:	00000097          	auipc	ra,0x0
 690:	9d4080e7          	jalr	-1580(ra) # 60 <uart_send_str>
# 
#     id = i2c_read_reg(BMP280_ADDR, BMP280_REG_ID);
 694:	0d000593          	li	a1,208
 698:	07600513          	li	a0,118
 69c:	00000097          	auipc	ra,0x0
 6a0:	d9c080e7          	jalr	-612(ra) # 438 <i2c_read_reg>
 6a4:	00050793          	mv	a5,a0
 6a8:	fef407a3          	sb	a5,-17(s0)
# 
#     uart_send_str("Chip ID: 0x");
 6ac:	000017b7          	lui	a5,0x1
 6b0:	ba878513          	addi	a0,a5,-1112 # ba8 <__modsi3+0x6c>
 6b4:	00000097          	auipc	ra,0x0
 6b8:	9ac080e7          	jalr	-1620(ra) # 60 <uart_send_str>
# 
#     uart_send_hex_byte(id);
 6bc:	fef44783          	lbu	a5,-17(s0)
 6c0:	00078513          	mv	a0,a5
 6c4:	00000097          	auipc	ra,0x0
 6c8:	aa4080e7          	jalr	-1372(ra) # 168 <uart_send_hex_byte>
# 
#     uart_send_str("\r\n");
 6cc:	000017b7          	lui	a5,0x1
 6d0:	bb478513          	addi	a0,a5,-1100 # bb4 <__modsi3+0x78>
 6d4:	00000097          	auipc	ra,0x0
 6d8:	98c080e7          	jalr	-1652(ra) # 60 <uart_send_str>
# 
#     if (id != BMP280_ID) {
 6dc:	fef44703          	lbu	a4,-17(s0)
 6e0:	05800793          	li	a5,88
 6e4:	00f70c63          	beq	a4,a5,6fc <bmp280_init+0x88>
# 
#         uart_send_str("BMP280 NOT FOUND\r\n");
 6e8:	000017b7          	lui	a5,0x1
 6ec:	bb878513          	addi	a0,a5,-1096 # bb8 <__modsi3+0x7c>
 6f0:	00000097          	auipc	ra,0x0
 6f4:	970080e7          	jalr	-1680(ra) # 60 <uart_send_str>
# 
#         return;
 6f8:	0540006f          	j	74c <bmp280_init+0xd8>
#     }
# 
#     uart_send_str("BMP280 DETECTED\r\n");
 6fc:	000017b7          	lui	a5,0x1
 700:	bcc78513          	addi	a0,a5,-1076 # bcc <__modsi3+0x90>
 704:	00000097          	auipc	ra,0x0
 708:	95c080e7          	jalr	-1700(ra) # 60 <uart_send_str>
# 
#     i2c_write_reg(
 70c:	02700613          	li	a2,39
 710:	0f400593          	li	a1,244
 714:	07600513          	li	a0,118
 718:	00000097          	auipc	ra,0x0
 71c:	c54080e7          	jalr	-940(ra) # 36c <i2c_write_reg>
#         BMP280_ADDR,
#         BMP280_REG_CTRL_MEAS,
#         0x27
#     );
# 
#     i2c_write_reg(
 720:	0a000613          	li	a2,160
 724:	0f500593          	li	a1,245
 728:	07600513          	li	a0,118
 72c:	00000097          	auipc	ra,0x0
 730:	c40080e7          	jalr	-960(ra) # 36c <i2c_write_reg>
#         BMP280_ADDR,
#         BMP280_REG_CONFIG,
#         0xA0
#     );
# 
#     bmp280_read_calibration();
 734:	00000097          	auipc	ra,0x0
 738:	eb8080e7          	jalr	-328(ra) # 5ec <bmp280_read_calibration>
# 
#     uart_send_str("BMP280 READY\r\n\r\n");
 73c:	000017b7          	lui	a5,0x1
 740:	be078513          	addi	a0,a5,-1056 # be0 <__modsi3+0xa4>
 744:	00000097          	auipc	ra,0x0
 748:	91c080e7          	jalr	-1764(ra) # 60 <uart_send_str>
# }
 74c:	01c12083          	lw	ra,28(sp)
 750:	01812403          	lw	s0,24(sp)
 754:	02010113          	addi	sp,sp,32
 758:	00008067          	ret

0000075c <bmp280_read_raw_temp>:
# 
# /* =========================================================
#    TEMPERATURE
# ========================================================= */
# 
# long bmp280_read_raw_temp() {
 75c:	fe010113          	addi	sp,sp,-32
 760:	00112e23          	sw	ra,28(sp)
 764:	00812c23          	sw	s0,24(sp)
 768:	02010413          	addi	s0,sp,32
#     unsigned char xlsb;
# 
#     long adc_T;
# 
#     msb =
#         i2c_read_reg(
 76c:	0fa00593          	li	a1,250
 770:	07600513          	li	a0,118
 774:	00000097          	auipc	ra,0x0
 778:	cc4080e7          	jalr	-828(ra) # 438 <i2c_read_reg>
 77c:	00050793          	mv	a5,a0
 780:	fef407a3          	sb	a5,-17(s0)
#             BMP280_ADDR,
#             BMP280_REG_TEMP_MSB
#         );
# 
#     lsb =
#         i2c_read_reg(
 784:	0fb00593          	li	a1,251
 788:	07600513          	li	a0,118
 78c:	00000097          	auipc	ra,0x0
 790:	cac080e7          	jalr	-852(ra) # 438 <i2c_read_reg>
 794:	00050793          	mv	a5,a0
 798:	fef40723          	sb	a5,-18(s0)
#             BMP280_ADDR,
#             BMP280_REG_TEMP_MSB + 1
#         );
# 
#     xlsb =
#         i2c_read_reg(
 79c:	0fc00593          	li	a1,252
 7a0:	07600513          	li	a0,118
 7a4:	00000097          	auipc	ra,0x0
 7a8:	c94080e7          	jalr	-876(ra) # 438 <i2c_read_reg>
 7ac:	00050793          	mv	a5,a0
 7b0:	fef406a3          	sb	a5,-19(s0)
#             BMP280_ADDR,
#             BMP280_REG_TEMP_MSB + 2
#         );
# 
#     adc_T =
#         ((long)msb << 12) |
 7b4:	fef44783          	lbu	a5,-17(s0)
 7b8:	00c79713          	slli	a4,a5,0xc
#         ((long)lsb << 4) |
 7bc:	fee44783          	lbu	a5,-18(s0)
 7c0:	00479793          	slli	a5,a5,0x4
#         ((long)msb << 12) |
 7c4:	00f767b3          	or	a5,a4,a5
#         ((long)xlsb >> 4);
 7c8:	fed44703          	lbu	a4,-19(s0)
 7cc:	00475713          	srli	a4,a4,0x4
 7d0:	0ff77713          	zext.b	a4,a4
#     adc_T =
 7d4:	00e7e7b3          	or	a5,a5,a4
 7d8:	fef42423          	sw	a5,-24(s0)
# 
#     return adc_T;
 7dc:	fe842783          	lw	a5,-24(s0)
# }
 7e0:	00078513          	mv	a0,a5
 7e4:	01c12083          	lw	ra,28(sp)
 7e8:	01812403          	lw	s0,24(sp)
 7ec:	02010113          	addi	sp,sp,32
 7f0:	00008067          	ret

000007f4 <bmp280_compensate_temp>:
# 
# long bmp280_compensate_temp(long adc_T) {
 7f4:	fd010113          	addi	sp,sp,-48
 7f8:	02112623          	sw	ra,44(sp)
 7fc:	02812423          	sw	s0,40(sp)
 800:	03010413          	addi	s0,sp,48
 804:	fca42e23          	sw	a0,-36(s0)
#     long var1;
#     long var2;
#     long T;
# 
#     var1 =
#         ((((adc_T >> 3) -
 808:	fdc42783          	lw	a5,-36(s0)
 80c:	4037d713          	srai	a4,a5,0x3
#         ((long)dig_T1 << 1))) *
 810:	000027b7          	lui	a5,0x2
 814:	ca87d783          	lhu	a5,-856(a5) # 1ca8 <dig_T1>
 818:	00179793          	slli	a5,a5,0x1
#         ((((adc_T >> 3) -
 81c:	40f70733          	sub	a4,a4,a5
#         ((long)dig_T2)) >> 11;
 820:	000027b7          	lui	a5,0x2
 824:	caa79783          	lh	a5,-854(a5) # 1caa <dig_T2>
#         ((long)dig_T1 << 1))) *
 828:	00078593          	mv	a1,a5
 82c:	00070513          	mv	a0,a4
 830:	00000097          	auipc	ra,0x0
 834:	264080e7          	jalr	612(ra) # a94 <__mulsi3>
 838:	00050793          	mv	a5,a0
#     var1 =
 83c:	40b7d793          	srai	a5,a5,0xb
 840:	fef42623          	sw	a5,-20(s0)
# 
#     var2 =
#         (((((adc_T >> 4) -
 844:	fdc42783          	lw	a5,-36(s0)
 848:	4047d793          	srai	a5,a5,0x4
#         ((long)dig_T1)) *
 84c:	00002737          	lui	a4,0x2
 850:	ca875703          	lhu	a4,-856(a4) # 1ca8 <dig_T1>
#         (((((adc_T >> 4) -
 854:	40e786b3          	sub	a3,a5,a4
#         ((adc_T >> 4) -
 858:	fdc42783          	lw	a5,-36(s0)
 85c:	4047d793          	srai	a5,a5,0x4
#         ((long)dig_T1))) >> 12) *
 860:	00002737          	lui	a4,0x2
 864:	ca875703          	lhu	a4,-856(a4) # 1ca8 <dig_T1>
#         ((adc_T >> 4) -
 868:	40e787b3          	sub	a5,a5,a4
#         ((long)dig_T1)) *
 86c:	00078593          	mv	a1,a5
 870:	00068513          	mv	a0,a3
 874:	00000097          	auipc	ra,0x0
 878:	220080e7          	jalr	544(ra) # a94 <__mulsi3>
 87c:	00050793          	mv	a5,a0
#         ((long)dig_T1))) >> 12) *
 880:	40c7d713          	srai	a4,a5,0xc
#         ((long)dig_T3)) >> 14;
 884:	000027b7          	lui	a5,0x2
 888:	cac79783          	lh	a5,-852(a5) # 1cac <dig_T3>
#         ((long)dig_T1))) >> 12) *
 88c:	00078593          	mv	a1,a5
 890:	00070513          	mv	a0,a4
 894:	00000097          	auipc	ra,0x0
 898:	200080e7          	jalr	512(ra) # a94 <__mulsi3>
 89c:	00050793          	mv	a5,a0
#     var2 =
 8a0:	40e7d793          	srai	a5,a5,0xe
 8a4:	fef42423          	sw	a5,-24(s0)
# 
#     t_fine = var1 + var2;
 8a8:	fec42703          	lw	a4,-20(s0)
 8ac:	fe842783          	lw	a5,-24(s0)
 8b0:	00f70733          	add	a4,a4,a5
 8b4:	000027b7          	lui	a5,0x2
 8b8:	cae7a823          	sw	a4,-848(a5) # 1cb0 <t_fine>
# 
#     T = (t_fine * 5 + 128) >> 8;
 8bc:	000027b7          	lui	a5,0x2
 8c0:	cb07a703          	lw	a4,-848(a5) # 1cb0 <t_fine>
 8c4:	00070793          	mv	a5,a4
 8c8:	00279793          	slli	a5,a5,0x2
 8cc:	00e787b3          	add	a5,a5,a4
 8d0:	08078793          	addi	a5,a5,128
 8d4:	4087d793          	srai	a5,a5,0x8
 8d8:	fef42223          	sw	a5,-28(s0)
# 
#     return T;
 8dc:	fe442783          	lw	a5,-28(s0)
# }
 8e0:	00078513          	mv	a0,a5
 8e4:	02c12083          	lw	ra,44(sp)
 8e8:	02812403          	lw	s0,40(sp)
 8ec:	03010113          	addi	sp,sp,48
 8f0:	00008067          	ret

000008f4 <bmp280_print_temperature>:
# 
# void bmp280_print_temperature() {
 8f4:	fe010113          	addi	sp,sp,-32
 8f8:	00112e23          	sw	ra,28(sp)
 8fc:	00812c23          	sw	s0,24(sp)
 900:	02010413          	addi	s0,sp,32
# 
#     long raw_temp;
#     long temp;
# 
#     raw_temp = bmp280_read_raw_temp();
 904:	00000097          	auipc	ra,0x0
 908:	e58080e7          	jalr	-424(ra) # 75c <bmp280_read_raw_temp>
 90c:	fea42623          	sw	a0,-20(s0)
# 
#     temp = bmp280_compensate_temp(raw_temp);
 910:	fec42503          	lw	a0,-20(s0)
 914:	00000097          	auipc	ra,0x0
 918:	ee0080e7          	jalr	-288(ra) # 7f4 <bmp280_compensate_temp>
 91c:	fea42423          	sw	a0,-24(s0)
# 
#     uart_send_str("Temperature: ");
 920:	000017b7          	lui	a5,0x1
 924:	bf478513          	addi	a0,a5,-1036 # bf4 <__modsi3+0xb8>
 928:	fffff097          	auipc	ra,0xfffff
 92c:	738080e7          	jalr	1848(ra) # 60 <uart_send_str>
# 
#     print_int(temp / 100);
 930:	fe842783          	lw	a5,-24(s0)
 934:	06400593          	li	a1,100
 938:	00078513          	mv	a0,a5
 93c:	00000097          	auipc	ra,0x0
 940:	17c080e7          	jalr	380(ra) # ab8 <__divsi3>
 944:	00050793          	mv	a5,a0
 948:	00078513          	mv	a0,a5
 94c:	00000097          	auipc	ra,0x0
 950:	878080e7          	jalr	-1928(ra) # 1c4 <print_int>
# 
#     uart_send_char('.');
 954:	02e00513          	li	a0,46
 958:	fffff097          	auipc	ra,0xfffff
 95c:	6b4080e7          	jalr	1716(ra) # c <uart_send_char>
# 
#     if ((temp % 100) < 10)
 960:	fe842783          	lw	a5,-24(s0)
 964:	06400593          	li	a1,100
 968:	00078513          	mv	a0,a5
 96c:	00000097          	auipc	ra,0x0
 970:	1d0080e7          	jalr	464(ra) # b3c <__modsi3>
 974:	00050793          	mv	a5,a0
 978:	00078713          	mv	a4,a5
 97c:	00900793          	li	a5,9
 980:	00e7c863          	blt	a5,a4,990 <bmp280_print_temperature+0x9c>
#         uart_send_char('0');
 984:	03000513          	li	a0,48
 988:	fffff097          	auipc	ra,0xfffff
 98c:	684080e7          	jalr	1668(ra) # c <uart_send_char>
# 
#     print_int(temp % 100);
 990:	fe842783          	lw	a5,-24(s0)
 994:	06400593          	li	a1,100
 998:	00078513          	mv	a0,a5
 99c:	00000097          	auipc	ra,0x0
 9a0:	1a0080e7          	jalr	416(ra) # b3c <__modsi3>
 9a4:	00050793          	mv	a5,a0
 9a8:	00078513          	mv	a0,a5
 9ac:	00000097          	auipc	ra,0x0
 9b0:	818080e7          	jalr	-2024(ra) # 1c4 <print_int>
# 
#     uart_send_str(" C\r\n\r\n");
 9b4:	000017b7          	lui	a5,0x1
 9b8:	c0478513          	addi	a0,a5,-1020 # c04 <__modsi3+0xc8>
 9bc:	fffff097          	auipc	ra,0xfffff
 9c0:	6a4080e7          	jalr	1700(ra) # 60 <uart_send_str>
# }
 9c4:	00000013          	nop
 9c8:	01c12083          	lw	ra,28(sp)
 9cc:	01812403          	lw	s0,24(sp)
 9d0:	02010113          	addi	sp,sp,32
 9d4:	00008067          	ret

000009d8 <run>:
# 
# /* =========================================================
#    MAIN
# ========================================================= */
# 
# void run() {
 9d8:	ff010113          	addi	sp,sp,-16
 9dc:	00112623          	sw	ra,12(sp)
 9e0:	00812423          	sw	s0,8(sp)
 9e4:	01010413          	addi	s0,sp,16
# 
#     *leds = 0x0F;
 9e8:	000027b7          	lui	a5,0x2
 9ec:	c907a783          	lw	a5,-880(a5) # 1c90 <leds>
 9f0:	00f00713          	li	a4,15
 9f4:	00e78023          	sb	a4,0(a5)
# 
#     uart_send_str("\r\n");
 9f8:	000017b7          	lui	a5,0x1
 9fc:	bb478513          	addi	a0,a5,-1100 # bb4 <__modsi3+0x78>
 a00:	fffff097          	auipc	ra,0xfffff
 a04:	660080e7          	jalr	1632(ra) # 60 <uart_send_str>
#     uart_send_str("================================\r\n");
 a08:	000017b7          	lui	a5,0x1
 a0c:	c0c78513          	addi	a0,a5,-1012 # c0c <__modsi3+0xd0>
 a10:	fffff097          	auipc	ra,0xfffff
 a14:	650080e7          	jalr	1616(ra) # 60 <uart_send_str>
#     uart_send_str(" RISC-V BMP280 DEMO\r\n");
 a18:	000017b7          	lui	a5,0x1
 a1c:	c3078513          	addi	a0,a5,-976 # c30 <__modsi3+0xf4>
 a20:	fffff097          	auipc	ra,0xfffff
 a24:	640080e7          	jalr	1600(ra) # 60 <uart_send_str>
#     uart_send_str("================================\r\n\r\n");
 a28:	000017b7          	lui	a5,0x1
 a2c:	c4878513          	addi	a0,a5,-952 # c48 <__modsi3+0x10c>
 a30:	fffff097          	auipc	ra,0xfffff
 a34:	630080e7          	jalr	1584(ra) # 60 <uart_send_str>
# 
#     bmp280_init();
 a38:	00000097          	auipc	ra,0x0
 a3c:	c3c080e7          	jalr	-964(ra) # 674 <bmp280_init>
# 
#     while (1) {
# 
#         uart_send_str(
 a40:	000017b7          	lui	a5,0x1
 a44:	c7078513          	addi	a0,a5,-912 # c70 <__modsi3+0x134>
 a48:	fffff097          	auipc	ra,0xfffff
 a4c:	618080e7          	jalr	1560(ra) # 60 <uart_send_str>
#             "Press ENTER to read sensor...\r\n"
#         );
# 
#         while (
 a50:	00000013          	nop
#             uart_read_char() != CHAR_CARRIAGE_RETURN
 a54:	fffff097          	auipc	ra,0xfffff
 a58:	664080e7          	jalr	1636(ra) # b8 <uart_read_char>
 a5c:	00050793          	mv	a5,a0
 a60:	00078713          	mv	a4,a5
 a64:	00d00793          	li	a5,13
 a68:	fef716e3          	bne	a4,a5,a54 <run+0x7c>
#         );
# 
#         uart_send_str("\r\n");
 a6c:	000017b7          	lui	a5,0x1
 a70:	bb478513          	addi	a0,a5,-1100 # bb4 <__modsi3+0x78>
 a74:	fffff097          	auipc	ra,0xfffff
 a78:	5ec080e7          	jalr	1516(ra) # 60 <uart_send_str>
# 
#         bmp280_print_temperature();
 a7c:	00000097          	auipc	ra,0x0
 a80:	e78080e7          	jalr	-392(ra) # 8f4 <bmp280_print_temperature>
# 
#         delay_ms(1000);
 a84:	3e800513          	li	a0,1000
 a88:	00000097          	auipc	ra,0x0
 a8c:	834080e7          	jalr	-1996(ra) # 2bc <delay_ms>
#         uart_send_str(
 a90:	fb1ff06f          	j	a40 <run+0x68>

00000a94 <__mulsi3>:
# /* Our RV64 64-bit routine is equivalent to our RV32 32-bit routine.  */
# # define __muldi3 __mulsi3
# #endif
# 
# FUNC_BEGIN (__muldi3)
#   mv     a2, a0
 a94:	00050613          	mv	a2,a0
#   li     a0, 0
 a98:	00000513          	li	a0,0
# .L1:
#   andi   a3, a1, 1
 a9c:	0015f693          	andi	a3,a1,1
#   beqz   a3, .L2
 aa0:	00068463          	beqz	a3,aa8 <__mulsi3+0x14>
#   add    a0, a0, a2
 aa4:	00c50533          	add	a0,a0,a2
# .L2:
#   srli   a1, a1, 1
 aa8:	0015d593          	srli	a1,a1,0x1
#   slli   a2, a2, 1
 aac:	00161613          	slli	a2,a2,0x1
#   bnez   a1, .L1
 ab0:	fe0596e3          	bnez	a1,a9c <__mulsi3+0x8>
#   ret
 ab4:	00008067          	ret

00000ab8 <__divsi3>:
#   li    t0, -1
#   beq   a1, t0, .L20
# #endif
# 
# FUNC_BEGIN (__divdi3)
#   bltz  a0, .L10
 ab8:	06054063          	bltz	a0,b18 <__umodsi3+0x10>
#   bltz  a1, .L11
 abc:	0605c663          	bltz	a1,b28 <__umodsi3+0x20>

00000ac0 <__hidden___udivsi3>:
#   /* Since the quotient is positive, fall into __udivdi3.  */
# 
# FUNC_BEGIN (__udivdi3)
#   mv    a2, a1
 ac0:	00058613          	mv	a2,a1
#   mv    a1, a0
 ac4:	00050593          	mv	a1,a0
#   li    a0, -1
 ac8:	fff00513          	li	a0,-1
#   beqz  a2, .L5
 acc:	02060c63          	beqz	a2,b04 <__hidden___udivsi3+0x44>
#   li    a3, 1
 ad0:	00100693          	li	a3,1
#   bgeu  a2, a1, .L2
 ad4:	00b67a63          	bgeu	a2,a1,ae8 <__hidden___udivsi3+0x28>
# .L1:
#   blez  a2, .L2
 ad8:	00c05863          	blez	a2,ae8 <__hidden___udivsi3+0x28>
#   slli  a2, a2, 1
 adc:	00161613          	slli	a2,a2,0x1
#   slli  a3, a3, 1
 ae0:	00169693          	slli	a3,a3,0x1
#   bgtu  a1, a2, .L1
 ae4:	feb66ae3          	bltu	a2,a1,ad8 <__hidden___udivsi3+0x18>
# .L2:
#   li    a0, 0
 ae8:	00000513          	li	a0,0
# .L3:
#   bltu  a1, a2, .L4
 aec:	00c5e663          	bltu	a1,a2,af8 <__hidden___udivsi3+0x38>
#   sub   a1, a1, a2
 af0:	40c585b3          	sub	a1,a1,a2
#   or    a0, a0, a3
 af4:	00d56533          	or	a0,a0,a3
# .L4:
#   srli  a3, a3, 1
 af8:	0016d693          	srli	a3,a3,0x1
#   srli  a2, a2, 1
 afc:	00165613          	srli	a2,a2,0x1
#   bnez  a3, .L3
 b00:	fe0696e3          	bnez	a3,aec <__hidden___udivsi3+0x2c>
# .L5:
#   ret
 b04:	00008067          	ret

00000b08 <__umodsi3>:
# FUNC_END (__udivdi3)
# HIDDEN_DEF (__udivdi3)
# 
# FUNC_BEGIN (__umoddi3)
#   /* Call __udivdi3(a0, a1), then return the remainder, which is in a1.  */
#   move  t0, ra
 b08:	00008293          	mv	t0,ra
#   jal   HIDDEN_JUMPTARGET(__udivdi3)
 b0c:	fb5ff0ef          	jal	ac0 <__hidden___udivsi3>
#   move  a0, a1
 b10:	00058513          	mv	a0,a1
#   jr    t0
 b14:	00028067          	jr	t0
# FUNC_END (__umoddi3)
# 
#   /* Handle negative arguments to __divdi3.  */
# .L10:
#   neg   a0, a0
 b18:	40a00533          	neg	a0,a0
#   /* Zero is handled as a negative so that the result will not be inverted.  */
#   bgtz  a1, .L12     /* Compute __udivdi3(-a0, a1), then negate the result.  */
 b1c:	00b04863          	bgtz	a1,b2c <__umodsi3+0x24>
# 
#   neg   a1, a1
 b20:	40b005b3          	neg	a1,a1
#   j     HIDDEN_JUMPTARGET(__udivdi3)     /* Compute __udivdi3(-a0, -a1).  */
 b24:	f9dff06f          	j	ac0 <__hidden___udivsi3>
# .L11:                /* Compute __udivdi3(a0, -a1), then negate the result.  */
#   neg   a1, a1
 b28:	40b005b3          	neg	a1,a1
# .L12:
#   move  t0, ra
 b2c:	00008293          	mv	t0,ra
#   jal   HIDDEN_JUMPTARGET(__udivdi3)
 b30:	f91ff0ef          	jal	ac0 <__hidden___udivsi3>
#   neg   a0, a0
 b34:	40a00533          	neg	a0,a0
#   jr    t0
 b38:	00028067          	jr	t0

00000b3c <__modsi3>:
# FUNC_END (__divdi3)
# 
# FUNC_BEGIN (__moddi3)
#   move   t0, ra
 b3c:	00008293          	mv	t0,ra
#   bltz   a1, .L31
 b40:	0005ca63          	bltz	a1,b54 <__modsi3+0x18>
#   bltz   a0, .L32
 b44:	00054c63          	bltz	a0,b5c <__modsi3+0x20>
# .L30:
#   jal    HIDDEN_JUMPTARGET(__udivdi3)    /* The dividend is not negative.  */
 b48:	f79ff0ef          	jal	ac0 <__hidden___udivsi3>
#   move   a0, a1
 b4c:	00058513          	mv	a0,a1
#   jr     t0
 b50:	00028067          	jr	t0
# .L31:
#   neg    a1, a1
 b54:	40b005b3          	neg	a1,a1
#   bgez   a0, .L30
 b58:	fe0558e3          	bgez	a0,b48 <__modsi3+0xc>
# .L32:
#   neg    a0, a0
 b5c:	40a00533          	neg	a0,a0
#   jal    HIDDEN_JUMPTARGET(__udivdi3)    /* The dividend is hella negative.  */
 b60:	f61ff0ef          	jal	ac0 <__hidden___udivsi3>
#   neg    a0, a1
 b64:	40b00533          	neg	a0,a1
#   jr     t0
 b68:	00028067          	jr	t0
