
os:     file format elf32-littleriscv


Disassembly of section .text:

00000000 <_start>:
# # generated - do not edit
# .global _start
# _start:
#     li sp, 0x7ffc
       0:	00008137          	lui	sp,0x8
       4:	ffc10113          	addi	sp,sp,-4 # 7ffc <__global_pointer$+0x57fc>
#     jal ra, run
       8:	004000ef          	jal	c <run>

0000000c <run>:
# void action_take(entity_id eid, name obj);
# void input(input_buffer *buf);
# void handle_input(entity_id eid, input_buffer *buf);
# unsigned char strings_equal(const char *s1, const char *s2);
# 
# void run() {
       c:	f9010113          	addi	sp,sp,-112
      10:	06112623          	sw	ra,108(sp)
      14:	06812423          	sw	s0,104(sp)
      18:	07010413          	addi	s0,sp,112
#   *leds = 0xe;
      1c:	000027b7          	lui	a5,0x2
      20:	3847a783          	lw	a5,900(a5) # 2384 <leds>
      24:	00e00713          	li	a4,14
      28:	00e78023          	sb	a4,0(a5)
# 
#   uart_send_str("=== RISC-V System with BMP280 ===\r\n");
      2c:	000027b7          	lui	a5,0x2
      30:	92c78513          	addi	a0,a5,-1748 # 192c <bmp280_read_temp+0x15c>
      34:	00001097          	auipc	ra,0x1
      38:	3d8080e7          	jalr	984(ra) # 140c <uart_send_str>
# 
#   bmp280_init();
      3c:	00001097          	auipc	ra,0x1
      40:	6f0080e7          	jalr	1776(ra) # 172c <bmp280_init>
# 
#   unsigned char active_entity = 1;
      44:	00100793          	li	a5,1
      48:	fef407a3          	sb	a5,-17(s0)
#   input_buffer inbuf;
#   inbuf.ix = 0;
      4c:	fe040223          	sb	zero,-28(s0)
# 
#   uart_send_str(hello);
      50:	000027b7          	lui	a5,0x2
      54:	3987a783          	lw	a5,920(a5) # 2398 <hello>
      58:	00078513          	mv	a0,a5
      5c:	00001097          	auipc	ra,0x1
      60:	3b0080e7          	jalr	944(ra) # 140c <uart_send_str>
# 
#   *leds = 0xd;
      64:	000027b7          	lui	a5,0x2
      68:	3847a783          	lw	a5,900(a5) # 2384 <leds>
      6c:	00d00713          	li	a4,13
      70:	00e78023          	sb	a4,0(a5)
# 
#   while (1) {
#     const entity *ent = &entities[active_entity];
      74:	fef44703          	lbu	a4,-17(s0)
      78:	00070793          	mv	a5,a4
      7c:	00279793          	slli	a5,a5,0x2
      80:	00e787b3          	add	a5,a5,a4
      84:	00379793          	slli	a5,a5,0x3
      88:	00002737          	lui	a4,0x2
      8c:	01070713          	addi	a4,a4,16 # 2010 <entities>
      90:	00e787b3          	add	a5,a5,a4
      94:	fef42423          	sw	a5,-24(s0)
#     print_location(ent->location, active_entity);
      98:	fe842783          	lw	a5,-24(s0)
      9c:	0047c783          	lbu	a5,4(a5)
      a0:	fef44703          	lbu	a4,-17(s0)
      a4:	00070593          	mv	a1,a4
      a8:	00078513          	mv	a0,a5
      ac:	00000097          	auipc	ra,0x0
      b0:	428080e7          	jalr	1064(ra) # 4d4 <print_location>
#     uart_send_str(ent->name);
      b4:	fe842783          	lw	a5,-24(s0)
      b8:	0007a783          	lw	a5,0(a5)
      bc:	00078513          	mv	a0,a5
      c0:	00001097          	auipc	ra,0x1
      c4:	34c080e7          	jalr	844(ra) # 140c <uart_send_str>
#     uart_send_str(" > ");
      c8:	000027b7          	lui	a5,0x2
      cc:	95078513          	addi	a0,a5,-1712 # 1950 <bmp280_read_temp+0x180>
      d0:	00001097          	auipc	ra,0x1
      d4:	33c080e7          	jalr	828(ra) # 140c <uart_send_str>
#     input(&inbuf);
      d8:	f9440793          	addi	a5,s0,-108
      dc:	00078513          	mv	a0,a5
      e0:	00001097          	auipc	ra,0x1
      e4:	18c080e7          	jalr	396(ra) # 126c <input>
#     uart_send_str("\r\n");
      e8:	000027b7          	lui	a5,0x2
      ec:	95478513          	addi	a0,a5,-1708 # 1954 <bmp280_read_temp+0x184>
      f0:	00001097          	auipc	ra,0x1
      f4:	31c080e7          	jalr	796(ra) # 140c <uart_send_str>
#     handle_input(active_entity, &inbuf);
      f8:	f9440713          	addi	a4,s0,-108
      fc:	fef44783          	lbu	a5,-17(s0)
     100:	00070593          	mv	a1,a4
     104:	00078513          	mv	a0,a5
     108:	00000097          	auipc	ra,0x0
     10c:	02c080e7          	jalr	44(ra) # 134 <handle_input>
#     if (active_entity == 1)
     110:	fef44703          	lbu	a4,-17(s0)
     114:	00100793          	li	a5,1
     118:	00f71863          	bne	a4,a5,128 <run+0x11c>
#       active_entity = 2;
     11c:	00200793          	li	a5,2
     120:	fef407a3          	sb	a5,-17(s0)
     124:	f51ff06f          	j	74 <run+0x68>
#     else
#       active_entity = 1;
     128:	00100793          	li	a5,1
     12c:	fef407a3          	sb	a5,-17(s0)
#   while (1) {
     130:	f45ff06f          	j	74 <run+0x68>

00000134 <handle_input>:
#   }
# }
# 
# void handle_input(entity_id eid, input_buffer *buf) {
     134:	fb010113          	addi	sp,sp,-80
     138:	04112623          	sw	ra,76(sp)
     13c:	04812423          	sw	s0,72(sp)
     140:	05010413          	addi	s0,sp,80
     144:	00050793          	mv	a5,a0
     148:	fab42c23          	sw	a1,-72(s0)
     14c:	faf40fa3          	sb	a5,-65(s0)
#   const char *words[8];
#   char *ptr = buf->line;
     150:	fb842783          	lw	a5,-72(s0)
     154:	fef42623          	sw	a5,-20(s0)
#   unsigned nwords = 0;
     158:	fe042423          	sw	zero,-24(s0)
#   while (1) {
#     words[nwords++] = ptr;
     15c:	fe842783          	lw	a5,-24(s0)
     160:	00178713          	addi	a4,a5,1
     164:	fee42423          	sw	a4,-24(s0)
     168:	fc840713          	addi	a4,s0,-56
     16c:	00279793          	slli	a5,a5,0x2
     170:	00e787b3          	add	a5,a5,a4
     174:	fec42703          	lw	a4,-20(s0)
     178:	00e7a023          	sw	a4,0(a5)
#     while (*ptr && *ptr != ' ') {
     17c:	0100006f          	j	18c <handle_input+0x58>
#       ptr++;
     180:	fec42783          	lw	a5,-20(s0)
     184:	00178793          	addi	a5,a5,1
     188:	fef42623          	sw	a5,-20(s0)
#     while (*ptr && *ptr != ' ') {
     18c:	fec42783          	lw	a5,-20(s0)
     190:	0007c783          	lbu	a5,0(a5)
     194:	00078a63          	beqz	a5,1a8 <handle_input+0x74>
     198:	fec42783          	lw	a5,-20(s0)
     19c:	0007c703          	lbu	a4,0(a5)
     1a0:	02000793          	li	a5,32
     1a4:	fcf71ee3          	bne	a4,a5,180 <handle_input+0x4c>
#     }
#     if (!*ptr)
     1a8:	fec42783          	lw	a5,-20(s0)
     1ac:	0007c783          	lbu	a5,0(a5)
     1b0:	02078c63          	beqz	a5,1e8 <handle_input+0xb4>
#       break;
#     *ptr = 0;
     1b4:	fec42783          	lw	a5,-20(s0)
     1b8:	00078023          	sb	zero,0(a5)
#     ptr++;
     1bc:	fec42783          	lw	a5,-20(s0)
     1c0:	00178793          	addi	a5,a5,1
     1c4:	fef42623          	sw	a5,-20(s0)
#     if (nwords == sizeof(words) / sizeof(const char *)) {
     1c8:	fe842703          	lw	a4,-24(s0)
     1cc:	00800793          	li	a5,8
     1d0:	f8f716e3          	bne	a4,a5,15c <handle_input+0x28>
#       uart_send_str("too many words, some ignored\r\n\r\n");
     1d4:	000027b7          	lui	a5,0x2
     1d8:	95878513          	addi	a0,a5,-1704 # 1958 <bmp280_read_temp+0x188>
     1dc:	00001097          	auipc	ra,0x1
     1e0:	230080e7          	jalr	560(ra) # 140c <uart_send_str>
#       break;
     1e4:	0080006f          	j	1ec <handle_input+0xb8>
#       break;
     1e8:	00000013          	nop
#   }
#   //  for (unsigned i = 0; i < nwords; i++) {
#   //    uart_send_str(words[i]);
#   //    uart_send_str("\r\n");
#   //  }
#   if (strings_equal(words[0], "help")) {
     1ec:	fc842703          	lw	a4,-56(s0)
     1f0:	000027b7          	lui	a5,0x2
     1f4:	97c78593          	addi	a1,a5,-1668 # 197c <bmp280_read_temp+0x1ac>
     1f8:	00070513          	mv	a0,a4
     1fc:	00001097          	auipc	ra,0x1
     200:	18c080e7          	jalr	396(ra) # 1388 <strings_equal>
     204:	00050793          	mv	a5,a0
     208:	00078863          	beqz	a5,218 <handle_input+0xe4>
#     print_help();
     20c:	00001097          	auipc	ra,0x1
     210:	02c080e7          	jalr	44(ra) # 1238 <print_help>
     214:	2b00006f          	j	4c4 <handle_input+0x390>
#   } else if (strings_equal(words[0], "i")) {
     218:	fc842703          	lw	a4,-56(s0)
     21c:	000027b7          	lui	a5,0x2
     220:	98478593          	addi	a1,a5,-1660 # 1984 <bmp280_read_temp+0x1b4>
     224:	00070513          	mv	a0,a4
     228:	00001097          	auipc	ra,0x1
     22c:	160080e7          	jalr	352(ra) # 1388 <strings_equal>
     230:	00050793          	mv	a5,a0
     234:	02078463          	beqz	a5,25c <handle_input+0x128>
#     action_inventory(eid);
     238:	fbf44783          	lbu	a5,-65(s0)
     23c:	00078513          	mv	a0,a5
     240:	00000097          	auipc	ra,0x0
     244:	584080e7          	jalr	1412(ra) # 7c4 <action_inventory>
#     uart_send_str("\r\n");
     248:	000027b7          	lui	a5,0x2
     24c:	95478513          	addi	a0,a5,-1708 # 1954 <bmp280_read_temp+0x184>
     250:	00001097          	auipc	ra,0x1
     254:	1bc080e7          	jalr	444(ra) # 140c <uart_send_str>
     258:	26c0006f          	j	4c4 <handle_input+0x390>
#   } else if (strings_equal(words[0], "t")) {
     25c:	fc842703          	lw	a4,-56(s0)
     260:	000027b7          	lui	a5,0x2
     264:	98878593          	addi	a1,a5,-1656 # 1988 <bmp280_read_temp+0x1b8>
     268:	00070513          	mv	a0,a4
     26c:	00001097          	auipc	ra,0x1
     270:	11c080e7          	jalr	284(ra) # 1388 <strings_equal>
     274:	00050793          	mv	a5,a0
     278:	04078063          	beqz	a5,2b8 <handle_input+0x184>
#     if (nwords < 2) {
     27c:	fe842703          	lw	a4,-24(s0)
     280:	00100793          	li	a5,1
     284:	00e7ec63          	bltu	a5,a4,29c <handle_input+0x168>
#       uart_send_str("take what\r\n\r\n");
     288:	000027b7          	lui	a5,0x2
     28c:	98c78513          	addi	a0,a5,-1652 # 198c <bmp280_read_temp+0x1bc>
     290:	00001097          	auipc	ra,0x1
     294:	17c080e7          	jalr	380(ra) # 140c <uart_send_str>
#       return;
     298:	22c0006f          	j	4c4 <handle_input+0x390>
#     }
#     action_take(eid, words[1]);
     29c:	fcc42703          	lw	a4,-52(s0)
     2a0:	fbf44783          	lbu	a5,-65(s0)
     2a4:	00070593          	mv	a1,a4
     2a8:	00078513          	mv	a0,a5
     2ac:	00001097          	auipc	ra,0x1
     2b0:	958080e7          	jalr	-1704(ra) # c04 <action_take>
     2b4:	2100006f          	j	4c4 <handle_input+0x390>
#   } else if (strings_equal(words[0], "d")) {
     2b8:	fc842703          	lw	a4,-56(s0)
     2bc:	000027b7          	lui	a5,0x2
     2c0:	99c78593          	addi	a1,a5,-1636 # 199c <bmp280_read_temp+0x1cc>
     2c4:	00070513          	mv	a0,a4
     2c8:	00001097          	auipc	ra,0x1
     2cc:	0c0080e7          	jalr	192(ra) # 1388 <strings_equal>
     2d0:	00050793          	mv	a5,a0
     2d4:	04078063          	beqz	a5,314 <handle_input+0x1e0>
#     if (nwords < 2) {
     2d8:	fe842703          	lw	a4,-24(s0)
     2dc:	00100793          	li	a5,1
     2e0:	00e7ec63          	bltu	a5,a4,2f8 <handle_input+0x1c4>
#       uart_send_str("drop what\r\n\r\n");
     2e4:	000027b7          	lui	a5,0x2
     2e8:	9a078513          	addi	a0,a5,-1632 # 19a0 <bmp280_read_temp+0x1d0>
     2ec:	00001097          	auipc	ra,0x1
     2f0:	120080e7          	jalr	288(ra) # 140c <uart_send_str>
#       return;
     2f4:	1d00006f          	j	4c4 <handle_input+0x390>
#     }
#     action_drop(eid, words[1]);
     2f8:	fcc42703          	lw	a4,-52(s0)
     2fc:	fbf44783          	lbu	a5,-65(s0)
     300:	00070593          	mv	a1,a4
     304:	00078513          	mv	a0,a5
     308:	00001097          	auipc	ra,0x1
     30c:	a5c080e7          	jalr	-1444(ra) # d64 <action_drop>
     310:	1b40006f          	j	4c4 <handle_input+0x390>
#   } else if (strings_equal(words[0], "n")) {
     314:	fc842703          	lw	a4,-56(s0)
     318:	000027b7          	lui	a5,0x2
     31c:	9b078593          	addi	a1,a5,-1616 # 19b0 <bmp280_read_temp+0x1e0>
     320:	00070513          	mv	a0,a4
     324:	00001097          	auipc	ra,0x1
     328:	064080e7          	jalr	100(ra) # 1388 <strings_equal>
     32c:	00050793          	mv	a5,a0
     330:	00078e63          	beqz	a5,34c <handle_input+0x218>
#     action_go(eid, 0);
     334:	fbf44783          	lbu	a5,-65(s0)
     338:	00000593          	li	a1,0
     33c:	00078513          	mv	a0,a5
     340:	00001097          	auipc	ra,0x1
     344:	b94080e7          	jalr	-1132(ra) # ed4 <action_go>
     348:	17c0006f          	j	4c4 <handle_input+0x390>
#   } else if (strings_equal(words[0], "e")) {
     34c:	fc842703          	lw	a4,-56(s0)
     350:	000027b7          	lui	a5,0x2
     354:	9b478593          	addi	a1,a5,-1612 # 19b4 <bmp280_read_temp+0x1e4>
     358:	00070513          	mv	a0,a4
     35c:	00001097          	auipc	ra,0x1
     360:	02c080e7          	jalr	44(ra) # 1388 <strings_equal>
     364:	00050793          	mv	a5,a0
     368:	00078e63          	beqz	a5,384 <handle_input+0x250>
#     action_go(eid, 1);
     36c:	fbf44783          	lbu	a5,-65(s0)
     370:	00100593          	li	a1,1
     374:	00078513          	mv	a0,a5
     378:	00001097          	auipc	ra,0x1
     37c:	b5c080e7          	jalr	-1188(ra) # ed4 <action_go>
     380:	1440006f          	j	4c4 <handle_input+0x390>
#   } else if (strings_equal(words[0], "s")) {
     384:	fc842703          	lw	a4,-56(s0)
     388:	000027b7          	lui	a5,0x2
     38c:	9b878593          	addi	a1,a5,-1608 # 19b8 <bmp280_read_temp+0x1e8>
     390:	00070513          	mv	a0,a4
     394:	00001097          	auipc	ra,0x1
     398:	ff4080e7          	jalr	-12(ra) # 1388 <strings_equal>
     39c:	00050793          	mv	a5,a0
     3a0:	00078e63          	beqz	a5,3bc <handle_input+0x288>
#     action_go(eid, 2);
     3a4:	fbf44783          	lbu	a5,-65(s0)
     3a8:	00200593          	li	a1,2
     3ac:	00078513          	mv	a0,a5
     3b0:	00001097          	auipc	ra,0x1
     3b4:	b24080e7          	jalr	-1244(ra) # ed4 <action_go>
     3b8:	10c0006f          	j	4c4 <handle_input+0x390>
#   } else if (strings_equal(words[0], "w")) {
     3bc:	fc842703          	lw	a4,-56(s0)
     3c0:	000027b7          	lui	a5,0x2
     3c4:	9bc78593          	addi	a1,a5,-1604 # 19bc <bmp280_read_temp+0x1ec>
     3c8:	00070513          	mv	a0,a4
     3cc:	00001097          	auipc	ra,0x1
     3d0:	fbc080e7          	jalr	-68(ra) # 1388 <strings_equal>
     3d4:	00050793          	mv	a5,a0
     3d8:	00078e63          	beqz	a5,3f4 <handle_input+0x2c0>
#     action_go(eid, 3);
     3dc:	fbf44783          	lbu	a5,-65(s0)
     3e0:	00300593          	li	a1,3
     3e4:	00078513          	mv	a0,a5
     3e8:	00001097          	auipc	ra,0x1
     3ec:	aec080e7          	jalr	-1300(ra) # ed4 <action_go>
     3f0:	0d40006f          	j	4c4 <handle_input+0x390>
#   } else if (strings_equal(words[0], "g")) {
     3f4:	fc842703          	lw	a4,-56(s0)
     3f8:	000027b7          	lui	a5,0x2
     3fc:	9c078593          	addi	a1,a5,-1600 # 19c0 <bmp280_read_temp+0x1f0>
     400:	00070513          	mv	a0,a4
     404:	00001097          	auipc	ra,0x1
     408:	f84080e7          	jalr	-124(ra) # 1388 <strings_equal>
     40c:	00050793          	mv	a5,a0
     410:	06078463          	beqz	a5,478 <handle_input+0x344>
#     if (nwords < 2) {
     414:	fe842703          	lw	a4,-24(s0)
     418:	00100793          	li	a5,1
     41c:	00e7ec63          	bltu	a5,a4,434 <handle_input+0x300>
#       uart_send_str("give what\r\n\r\n");
     420:	000027b7          	lui	a5,0x2
     424:	9c478513          	addi	a0,a5,-1596 # 19c4 <bmp280_read_temp+0x1f4>
     428:	00001097          	auipc	ra,0x1
     42c:	fe4080e7          	jalr	-28(ra) # 140c <uart_send_str>
#       return;
     430:	0940006f          	j	4c4 <handle_input+0x390>
#     }
#     if (nwords < 3) {
     434:	fe842703          	lw	a4,-24(s0)
     438:	00200793          	li	a5,2
     43c:	00e7ec63          	bltu	a5,a4,454 <handle_input+0x320>
#       uart_send_str("give to whom\r\n\r\n");
     440:	000027b7          	lui	a5,0x2
     444:	9d478513          	addi	a0,a5,-1580 # 19d4 <bmp280_read_temp+0x204>
     448:	00001097          	auipc	ra,0x1
     44c:	fc4080e7          	jalr	-60(ra) # 140c <uart_send_str>
#       return;
     450:	0740006f          	j	4c4 <handle_input+0x390>
#     }
#     action_give(eid, words[1], words[2]);
     454:	fcc42703          	lw	a4,-52(s0)
     458:	fd042683          	lw	a3,-48(s0)
     45c:	fbf44783          	lbu	a5,-65(s0)
     460:	00068613          	mv	a2,a3
     464:	00070593          	mv	a1,a4
     468:	00078513          	mv	a0,a5
     46c:	00001097          	auipc	ra,0x1
     470:	ba0080e7          	jalr	-1120(ra) # 100c <action_give>
     474:	0500006f          	j	4c4 <handle_input+0x390>
#   } else if (strings_equal(words[0], "sensor")) {
     478:	fc842703          	lw	a4,-56(s0)
     47c:	000027b7          	lui	a5,0x2
     480:	9e878593          	addi	a1,a5,-1560 # 19e8 <bmp280_read_temp+0x218>
     484:	00070513          	mv	a0,a4
     488:	00001097          	auipc	ra,0x1
     48c:	f00080e7          	jalr	-256(ra) # 1388 <strings_equal>
     490:	00050793          	mv	a5,a0
     494:	02078063          	beqz	a5,4b4 <handle_input+0x380>
#     bmp280_read_temp();
     498:	00001097          	auipc	ra,0x1
     49c:	338080e7          	jalr	824(ra) # 17d0 <bmp280_read_temp>
#     uart_send_str("\r\n");
     4a0:	000027b7          	lui	a5,0x2
     4a4:	95478513          	addi	a0,a5,-1708 # 1954 <bmp280_read_temp+0x184>
     4a8:	00001097          	auipc	ra,0x1
     4ac:	f64080e7          	jalr	-156(ra) # 140c <uart_send_str>
     4b0:	0140006f          	j	4c4 <handle_input+0x390>
#   } else {
#     uart_send_str("not understood\r\n\r\n");
     4b4:	000027b7          	lui	a5,0x2
     4b8:	9f078513          	addi	a0,a5,-1552 # 19f0 <bmp280_read_temp+0x220>
     4bc:	00001097          	auipc	ra,0x1
     4c0:	f50080e7          	jalr	-176(ra) # 140c <uart_send_str>
#   }
# }
     4c4:	04c12083          	lw	ra,76(sp)
     4c8:	04812403          	lw	s0,72(sp)
     4cc:	05010113          	addi	sp,sp,80
     4d0:	00008067          	ret

000004d4 <print_location>:
# 
# void print_location(location_id lid, entity_id eid_exclude_from_output) {
     4d4:	fb010113          	addi	sp,sp,-80
     4d8:	04112623          	sw	ra,76(sp)
     4dc:	04812423          	sw	s0,72(sp)
     4e0:	05010413          	addi	s0,sp,80
     4e4:	00050793          	mv	a5,a0
     4e8:	00058713          	mv	a4,a1
     4ec:	faf40fa3          	sb	a5,-65(s0)
     4f0:	00070793          	mv	a5,a4
     4f4:	faf40f23          	sb	a5,-66(s0)
#   const location *loc = &locations[lid];
     4f8:	fbf44703          	lbu	a4,-65(s0)
     4fc:	00070793          	mv	a5,a4
     500:	00379793          	slli	a5,a5,0x3
     504:	00e787b3          	add	a5,a5,a4
     508:	00279793          	slli	a5,a5,0x2
     50c:	00e787b3          	add	a5,a5,a4
     510:	00279793          	slli	a5,a5,0x2
     514:	00002737          	lui	a4,0x2
     518:	08870713          	addi	a4,a4,136 # 2088 <locations>
     51c:	00e787b3          	add	a5,a5,a4
     520:	fcf42e23          	sw	a5,-36(s0)
#   uart_send_str("u r in ");
     524:	000027b7          	lui	a5,0x2
     528:	a0478513          	addi	a0,a5,-1532 # 1a04 <bmp280_read_temp+0x234>
     52c:	00001097          	auipc	ra,0x1
     530:	ee0080e7          	jalr	-288(ra) # 140c <uart_send_str>
#   uart_send_str(loc->name);
     534:	fdc42783          	lw	a5,-36(s0)
     538:	0007a783          	lw	a5,0(a5)
     53c:	00078513          	mv	a0,a5
     540:	00001097          	auipc	ra,0x1
     544:	ecc080e7          	jalr	-308(ra) # 140c <uart_send_str>
#   uart_send_str("\r\nu c: ");
     548:	000027b7          	lui	a5,0x2
     54c:	a0c78513          	addi	a0,a5,-1524 # 1a0c <bmp280_read_temp+0x23c>
     550:	00001097          	auipc	ra,0x1
     554:	ebc080e7          	jalr	-324(ra) # 140c <uart_send_str>
# 
#   // print objects in location
#   unsigned char add_list_sep = FALSE;
     558:	fe0407a3          	sb	zero,-17(s0)
#   const object_id *lso = loc->objects;
     55c:	fdc42783          	lw	a5,-36(s0)
     560:	00478793          	addi	a5,a5,4
     564:	fcf42c23          	sw	a5,-40(s0)
#   for (unsigned i = 0; i < LOCATION_MAX_OBJECTS; i++) {
     568:	fe042423          	sw	zero,-24(s0)
     56c:	0740006f          	j	5e0 <print_location+0x10c>
#     const object_id oid = lso[i];
     570:	fd842703          	lw	a4,-40(s0)
     574:	fe842783          	lw	a5,-24(s0)
     578:	00f707b3          	add	a5,a4,a5
     57c:	0007c783          	lbu	a5,0(a5)
     580:	fcf40ba3          	sb	a5,-41(s0)
#     if (!oid)
     584:	fd744783          	lbu	a5,-41(s0)
     588:	06078463          	beqz	a5,5f0 <print_location+0x11c>
#       break;
#     if (add_list_sep) {
     58c:	fef44783          	lbu	a5,-17(s0)
     590:	00078c63          	beqz	a5,5a8 <print_location+0xd4>
#       uart_send_str(", ");
     594:	000027b7          	lui	a5,0x2
     598:	a1478513          	addi	a0,a5,-1516 # 1a14 <bmp280_read_temp+0x244>
     59c:	00001097          	auipc	ra,0x1
     5a0:	e70080e7          	jalr	-400(ra) # 140c <uart_send_str>
     5a4:	00c0006f          	j	5b0 <print_location+0xdc>
#     } else {
#       add_list_sep = TRUE;
     5a8:	00100793          	li	a5,1
     5ac:	fef407a3          	sb	a5,-17(s0)
#     }
#     uart_send_str(objects[oid].name);
     5b0:	fd744783          	lbu	a5,-41(s0)
     5b4:	00002737          	lui	a4,0x2
     5b8:	00070713          	mv	a4,a4
     5bc:	00279793          	slli	a5,a5,0x2
     5c0:	00f707b3          	add	a5,a4,a5
     5c4:	0007a783          	lw	a5,0(a5)
     5c8:	00078513          	mv	a0,a5
     5cc:	00001097          	auipc	ra,0x1
     5d0:	e40080e7          	jalr	-448(ra) # 140c <uart_send_str>
#   for (unsigned i = 0; i < LOCATION_MAX_OBJECTS; i++) {
     5d4:	fe842783          	lw	a5,-24(s0)
     5d8:	00178793          	addi	a5,a5,1
     5dc:	fef42423          	sw	a5,-24(s0)
     5e0:	fe842703          	lw	a4,-24(s0)
     5e4:	07f00793          	li	a5,127
     5e8:	f8e7f4e3          	bgeu	a5,a4,570 <print_location+0x9c>
     5ec:	0080006f          	j	5f4 <print_location+0x120>
#       break;
     5f0:	00000013          	nop
#   }
#   if (!add_list_sep) {
     5f4:	fef44783          	lbu	a5,-17(s0)
     5f8:	00079a63          	bnez	a5,60c <print_location+0x138>
#     uart_send_str("nothing");
     5fc:	000027b7          	lui	a5,0x2
     600:	a1878513          	addi	a0,a5,-1512 # 1a18 <bmp280_read_temp+0x248>
     604:	00001097          	auipc	ra,0x1
     608:	e08080e7          	jalr	-504(ra) # 140c <uart_send_str>
#   }
#   uart_send_str("\r\n");
     60c:	000027b7          	lui	a5,0x2
     610:	95478513          	addi	a0,a5,-1708 # 1954 <bmp280_read_temp+0x184>
     614:	00001097          	auipc	ra,0x1
     618:	df8080e7          	jalr	-520(ra) # 140c <uart_send_str>
# 
#   // print entities in location
#   add_list_sep = FALSE;
     61c:	fe0407a3          	sb	zero,-17(s0)
#   const entity_id *lse = loc->entities;
     620:	fdc42783          	lw	a5,-36(s0)
     624:	08478793          	addi	a5,a5,132
     628:	fcf42823          	sw	a5,-48(s0)
#   for (unsigned i = 0; i < LOCATION_MAX_ENTITIES; i++) {
     62c:	fe042223          	sw	zero,-28(s0)
     630:	0940006f          	j	6c4 <print_location+0x1f0>
#     const entity_id eid = lse[i];
     634:	fd042703          	lw	a4,-48(s0)
     638:	fe442783          	lw	a5,-28(s0)
     63c:	00f707b3          	add	a5,a4,a5
     640:	0007c783          	lbu	a5,0(a5)
     644:	fcf407a3          	sb	a5,-49(s0)
#     if (!eid)
     648:	fcf44783          	lbu	a5,-49(s0)
     64c:	08078463          	beqz	a5,6d4 <print_location+0x200>
#       break;
#     if (eid == eid_exclude_from_output)
     650:	fcf44703          	lbu	a4,-49(s0)
     654:	fbe44783          	lbu	a5,-66(s0)
     658:	04f70e63          	beq	a4,a5,6b4 <print_location+0x1e0>
#       continue;
#     if (add_list_sep) {
     65c:	fef44783          	lbu	a5,-17(s0)
     660:	00078c63          	beqz	a5,678 <print_location+0x1a4>
#       uart_send_str(", ");
     664:	000027b7          	lui	a5,0x2
     668:	a1478513          	addi	a0,a5,-1516 # 1a14 <bmp280_read_temp+0x244>
     66c:	00001097          	auipc	ra,0x1
     670:	da0080e7          	jalr	-608(ra) # 140c <uart_send_str>
     674:	00c0006f          	j	680 <print_location+0x1ac>
#     } else {
#       add_list_sep = TRUE;
     678:	00100793          	li	a5,1
     67c:	fef407a3          	sb	a5,-17(s0)
#     }
#     uart_send_str(entities[eid].name);
     680:	fcf44703          	lbu	a4,-49(s0)
     684:	000027b7          	lui	a5,0x2
     688:	01078693          	addi	a3,a5,16 # 2010 <entities>
     68c:	00070793          	mv	a5,a4
     690:	00279793          	slli	a5,a5,0x2
     694:	00e787b3          	add	a5,a5,a4
     698:	00379793          	slli	a5,a5,0x3
     69c:	00f687b3          	add	a5,a3,a5
     6a0:	0007a783          	lw	a5,0(a5)
     6a4:	00078513          	mv	a0,a5
     6a8:	00001097          	auipc	ra,0x1
     6ac:	d64080e7          	jalr	-668(ra) # 140c <uart_send_str>
     6b0:	0080006f          	j	6b8 <print_location+0x1e4>
#       continue;
     6b4:	00000013          	nop
#   for (unsigned i = 0; i < LOCATION_MAX_ENTITIES; i++) {
     6b8:	fe442783          	lw	a5,-28(s0)
     6bc:	00178793          	addi	a5,a5,1
     6c0:	fef42223          	sw	a5,-28(s0)
     6c4:	fe442703          	lw	a4,-28(s0)
     6c8:	00700793          	li	a5,7
     6cc:	f6e7f4e3          	bgeu	a5,a4,634 <print_location+0x160>
     6d0:	0080006f          	j	6d8 <print_location+0x204>
#       break;
     6d4:	00000013          	nop
#   }
#   if (add_list_sep) {
     6d8:	fef44783          	lbu	a5,-17(s0)
     6dc:	00078a63          	beqz	a5,6f0 <print_location+0x21c>
#     uart_send_str(" is here\r\n");
     6e0:	000027b7          	lui	a5,0x2
     6e4:	a2078513          	addi	a0,a5,-1504 # 1a20 <bmp280_read_temp+0x250>
     6e8:	00001097          	auipc	ra,0x1
     6ec:	d24080e7          	jalr	-732(ra) # 140c <uart_send_str>
#   }
# 
#   // print exits from location
#   add_list_sep = FALSE;
     6f0:	fe0407a3          	sb	zero,-17(s0)
#   uart_send_str("exits: ");
     6f4:	000027b7          	lui	a5,0x2
     6f8:	a2c78513          	addi	a0,a5,-1492 # 1a2c <bmp280_read_temp+0x25c>
     6fc:	00001097          	auipc	ra,0x1
     700:	d10080e7          	jalr	-752(ra) # 140c <uart_send_str>
#   for (unsigned i = 0; i < LOCATION_MAX_EXITS; i++) {
     704:	fe042023          	sw	zero,-32(s0)
     708:	0740006f          	j	77c <print_location+0x2a8>
#     if (!loc->exits[i])
     70c:	fdc42703          	lw	a4,-36(s0)
     710:	fe042783          	lw	a5,-32(s0)
     714:	00f707b3          	add	a5,a4,a5
     718:	08c7c783          	lbu	a5,140(a5)
     71c:	04078863          	beqz	a5,76c <print_location+0x298>
#       continue;
#     if (add_list_sep) {
     720:	fef44783          	lbu	a5,-17(s0)
     724:	00078c63          	beqz	a5,73c <print_location+0x268>
#       uart_send_str(", ");
     728:	000027b7          	lui	a5,0x2
     72c:	a1478513          	addi	a0,a5,-1516 # 1a14 <bmp280_read_temp+0x244>
     730:	00001097          	auipc	ra,0x1
     734:	cdc080e7          	jalr	-804(ra) # 140c <uart_send_str>
     738:	00c0006f          	j	744 <print_location+0x270>
#     } else {
#       add_list_sep = TRUE;
     73c:	00100793          	li	a5,1
     740:	fef407a3          	sb	a5,-17(s0)
#     }
#     uart_send_str(exit_names[i]);
     744:	000027b7          	lui	a5,0x2
     748:	36c78713          	addi	a4,a5,876 # 236c <exit_names>
     74c:	fe042783          	lw	a5,-32(s0)
     750:	00279793          	slli	a5,a5,0x2
     754:	00f707b3          	add	a5,a4,a5
     758:	0007a783          	lw	a5,0(a5)
     75c:	00078513          	mv	a0,a5
     760:	00001097          	auipc	ra,0x1
     764:	cac080e7          	jalr	-852(ra) # 140c <uart_send_str>
     768:	0080006f          	j	770 <print_location+0x29c>
#       continue;
     76c:	00000013          	nop
#   for (unsigned i = 0; i < LOCATION_MAX_EXITS; i++) {
     770:	fe042783          	lw	a5,-32(s0)
     774:	00178793          	addi	a5,a5,1
     778:	fef42023          	sw	a5,-32(s0)
     77c:	fe042703          	lw	a4,-32(s0)
     780:	00500793          	li	a5,5
     784:	f8e7f4e3          	bgeu	a5,a4,70c <print_location+0x238>
#   }
#   if (!add_list_sep) {
     788:	fef44783          	lbu	a5,-17(s0)
     78c:	00079a63          	bnez	a5,7a0 <print_location+0x2cc>
#     uart_send_str("none");
     790:	000027b7          	lui	a5,0x2
     794:	a3478513          	addi	a0,a5,-1484 # 1a34 <bmp280_read_temp+0x264>
     798:	00001097          	auipc	ra,0x1
     79c:	c74080e7          	jalr	-908(ra) # 140c <uart_send_str>
#   }
#   uart_send_str("\r\n");
     7a0:	000027b7          	lui	a5,0x2
     7a4:	95478513          	addi	a0,a5,-1708 # 1954 <bmp280_read_temp+0x184>
     7a8:	00001097          	auipc	ra,0x1
     7ac:	c64080e7          	jalr	-924(ra) # 140c <uart_send_str>
# }
     7b0:	00000013          	nop
     7b4:	04c12083          	lw	ra,76(sp)
     7b8:	04812403          	lw	s0,72(sp)
     7bc:	05010113          	addi	sp,sp,80
     7c0:	00008067          	ret

000007c4 <action_inventory>:
# 
# void action_inventory(entity_id eid) {
     7c4:	fd010113          	addi	sp,sp,-48
     7c8:	02112623          	sw	ra,44(sp)
     7cc:	02812423          	sw	s0,40(sp)
     7d0:	03010413          	addi	s0,sp,48
     7d4:	00050793          	mv	a5,a0
     7d8:	fcf40fa3          	sb	a5,-33(s0)
#   uart_send_str("u have: ");
     7dc:	000027b7          	lui	a5,0x2
     7e0:	a3c78513          	addi	a0,a5,-1476 # 1a3c <bmp280_read_temp+0x26c>
     7e4:	00001097          	auipc	ra,0x1
     7e8:	c28080e7          	jalr	-984(ra) # 140c <uart_send_str>
#   unsigned char add_list_sep = FALSE;
     7ec:	fe0407a3          	sb	zero,-17(s0)
#   const object_id *lso = entities[eid].objects;
     7f0:	fdf44703          	lbu	a4,-33(s0)
     7f4:	00070793          	mv	a5,a4
     7f8:	00279793          	slli	a5,a5,0x2
     7fc:	00e787b3          	add	a5,a5,a4
     800:	00379793          	slli	a5,a5,0x3
     804:	00002737          	lui	a4,0x2
     808:	01070713          	addi	a4,a4,16 # 2010 <entities>
     80c:	00e787b3          	add	a5,a5,a4
     810:	00578793          	addi	a5,a5,5
     814:	fef42223          	sw	a5,-28(s0)
#   for (unsigned i = 0; i < ENTITY_MAX_OBJECTS; i++) {
     818:	fe042423          	sw	zero,-24(s0)
     81c:	0740006f          	j	890 <action_inventory+0xcc>
#     const object_id oid = lso[i];
     820:	fe442703          	lw	a4,-28(s0)
     824:	fe842783          	lw	a5,-24(s0)
     828:	00f707b3          	add	a5,a4,a5
     82c:	0007c783          	lbu	a5,0(a5)
     830:	fef401a3          	sb	a5,-29(s0)
#     if (!oid)
     834:	fe344783          	lbu	a5,-29(s0)
     838:	06078463          	beqz	a5,8a0 <action_inventory+0xdc>
#       break;
#     if (add_list_sep) {
     83c:	fef44783          	lbu	a5,-17(s0)
     840:	00078c63          	beqz	a5,858 <action_inventory+0x94>
#       uart_send_str(", ");
     844:	000027b7          	lui	a5,0x2
     848:	a1478513          	addi	a0,a5,-1516 # 1a14 <bmp280_read_temp+0x244>
     84c:	00001097          	auipc	ra,0x1
     850:	bc0080e7          	jalr	-1088(ra) # 140c <uart_send_str>
     854:	00c0006f          	j	860 <action_inventory+0x9c>
#     } else {
#       add_list_sep = TRUE;
     858:	00100793          	li	a5,1
     85c:	fef407a3          	sb	a5,-17(s0)
#     }
#     uart_send_str(objects[oid].name);
     860:	fe344783          	lbu	a5,-29(s0)
     864:	00002737          	lui	a4,0x2
     868:	00070713          	mv	a4,a4
     86c:	00279793          	slli	a5,a5,0x2
     870:	00f707b3          	add	a5,a4,a5
     874:	0007a783          	lw	a5,0(a5)
     878:	00078513          	mv	a0,a5
     87c:	00001097          	auipc	ra,0x1
     880:	b90080e7          	jalr	-1136(ra) # 140c <uart_send_str>
#   for (unsigned i = 0; i < ENTITY_MAX_OBJECTS; i++) {
     884:	fe842783          	lw	a5,-24(s0)
     888:	00178793          	addi	a5,a5,1
     88c:	fef42423          	sw	a5,-24(s0)
     890:	fe842703          	lw	a4,-24(s0)
     894:	01f00793          	li	a5,31
     898:	f8e7f4e3          	bgeu	a5,a4,820 <action_inventory+0x5c>
     89c:	0080006f          	j	8a4 <action_inventory+0xe0>
#       break;
     8a0:	00000013          	nop
#   }
#   if (!add_list_sep) {
     8a4:	fef44783          	lbu	a5,-17(s0)
     8a8:	00079a63          	bnez	a5,8bc <action_inventory+0xf8>
#     uart_send_str("nothing");
     8ac:	000027b7          	lui	a5,0x2
     8b0:	a1878513          	addi	a0,a5,-1512 # 1a18 <bmp280_read_temp+0x248>
     8b4:	00001097          	auipc	ra,0x1
     8b8:	b58080e7          	jalr	-1192(ra) # 140c <uart_send_str>
#   }
#   uart_send_str("\r\n");
     8bc:	000027b7          	lui	a5,0x2
     8c0:	95478513          	addi	a0,a5,-1708 # 1954 <bmp280_read_temp+0x184>
     8c4:	00001097          	auipc	ra,0x1
     8c8:	b48080e7          	jalr	-1208(ra) # 140c <uart_send_str>
# }
     8cc:	00000013          	nop
     8d0:	02c12083          	lw	ra,44(sp)
     8d4:	02812403          	lw	s0,40(sp)
     8d8:	03010113          	addi	sp,sp,48
     8dc:	00008067          	ret

000008e0 <remove_object_from_list_by_index>:
# 
# void remove_object_from_list_by_index(object_id list[], unsigned ix) {
     8e0:	fd010113          	addi	sp,sp,-48
     8e4:	02112623          	sw	ra,44(sp)
     8e8:	02812423          	sw	s0,40(sp)
     8ec:	03010413          	addi	s0,sp,48
     8f0:	fca42e23          	sw	a0,-36(s0)
     8f4:	fcb42c23          	sw	a1,-40(s0)
#   object_id *ptr = &list[ix];
     8f8:	fdc42703          	lw	a4,-36(s0)
     8fc:	fd842783          	lw	a5,-40(s0)
     900:	00f707b3          	add	a5,a4,a5
     904:	fef42623          	sw	a5,-20(s0)
#   while (1) {
#     *ptr = *(ptr + 1);
     908:	fec42783          	lw	a5,-20(s0)
     90c:	0017c703          	lbu	a4,1(a5)
     910:	fec42783          	lw	a5,-20(s0)
     914:	00e78023          	sb	a4,0(a5)
#     if (!*ptr)
     918:	fec42783          	lw	a5,-20(s0)
     91c:	0007c783          	lbu	a5,0(a5)
     920:	00078a63          	beqz	a5,934 <remove_object_from_list_by_index+0x54>
#       return;
#     ptr++;
     924:	fec42783          	lw	a5,-20(s0)
     928:	00178793          	addi	a5,a5,1
     92c:	fef42623          	sw	a5,-20(s0)
#     *ptr = *(ptr + 1);
     930:	fd9ff06f          	j	908 <remove_object_from_list_by_index+0x28>
#       return;
     934:	00000013          	nop
#   }
# }
     938:	02c12083          	lw	ra,44(sp)
     93c:	02812403          	lw	s0,40(sp)
     940:	03010113          	addi	sp,sp,48
     944:	00008067          	ret

00000948 <add_object_to_list>:
# 
# unsigned char add_object_to_list(object_id list[], unsigned list_len, object_id oid) {
     948:	fd010113          	addi	sp,sp,-48
     94c:	02112623          	sw	ra,44(sp)
     950:	02812423          	sw	s0,40(sp)
     954:	03010413          	addi	s0,sp,48
     958:	fca42e23          	sw	a0,-36(s0)
     95c:	fcb42c23          	sw	a1,-40(s0)
     960:	00060793          	mv	a5,a2
     964:	fcf40ba3          	sb	a5,-41(s0)
#   // list_len - 1 since last element has to be 0
#   for (unsigned i = 0; i < list_len - 1; i++) {
     968:	fe042623          	sw	zero,-20(s0)
     96c:	0580006f          	j	9c4 <add_object_to_list+0x7c>
#     if (list[i])
     970:	fdc42703          	lw	a4,-36(s0)
     974:	fec42783          	lw	a5,-20(s0)
     978:	00f707b3          	add	a5,a4,a5
     97c:	0007c783          	lbu	a5,0(a5)
     980:	02079a63          	bnez	a5,9b4 <add_object_to_list+0x6c>
#       continue;
#     list[i] = oid;
     984:	fdc42703          	lw	a4,-36(s0)
     988:	fec42783          	lw	a5,-20(s0)
     98c:	00f707b3          	add	a5,a4,a5
     990:	fd744703          	lbu	a4,-41(s0)
     994:	00e78023          	sb	a4,0(a5)
#     list[i + 1] = 0;
     998:	fec42783          	lw	a5,-20(s0)
     99c:	00178793          	addi	a5,a5,1
     9a0:	fdc42703          	lw	a4,-36(s0)
     9a4:	00f707b3          	add	a5,a4,a5
     9a8:	00078023          	sb	zero,0(a5)
#     return TRUE;
     9ac:	00100793          	li	a5,1
     9b0:	0380006f          	j	9e8 <add_object_to_list+0xa0>
#       continue;
     9b4:	00000013          	nop
#   for (unsigned i = 0; i < list_len - 1; i++) {
     9b8:	fec42783          	lw	a5,-20(s0)
     9bc:	00178793          	addi	a5,a5,1
     9c0:	fef42623          	sw	a5,-20(s0)
     9c4:	fd842783          	lw	a5,-40(s0)
     9c8:	fff78793          	addi	a5,a5,-1
     9cc:	fec42703          	lw	a4,-20(s0)
     9d0:	faf760e3          	bltu	a4,a5,970 <add_object_to_list+0x28>
#   }
#   uart_send_str("space full\r\n");
     9d4:	000027b7          	lui	a5,0x2
     9d8:	a4878513          	addi	a0,a5,-1464 # 1a48 <bmp280_read_temp+0x278>
     9dc:	00001097          	auipc	ra,0x1
     9e0:	a30080e7          	jalr	-1488(ra) # 140c <uart_send_str>
#   return FALSE;
     9e4:	00000793          	li	a5,0
# }
     9e8:	00078513          	mv	a0,a5
     9ec:	02c12083          	lw	ra,44(sp)
     9f0:	02812403          	lw	s0,40(sp)
     9f4:	03010113          	addi	sp,sp,48
     9f8:	00008067          	ret

000009fc <add_entity_to_list>:
# 
# unsigned char add_entity_to_list(entity_id list[], unsigned list_len, entity_id eid) {
     9fc:	fd010113          	addi	sp,sp,-48
     a00:	02112623          	sw	ra,44(sp)
     a04:	02812423          	sw	s0,40(sp)
     a08:	03010413          	addi	s0,sp,48
     a0c:	fca42e23          	sw	a0,-36(s0)
     a10:	fcb42c23          	sw	a1,-40(s0)
     a14:	00060793          	mv	a5,a2
     a18:	fcf40ba3          	sb	a5,-41(s0)
#   // list_len - 1 since last element has to be 0
#   for (unsigned i = 0; i < list_len - 1; i++) {
     a1c:	fe042623          	sw	zero,-20(s0)
     a20:	0580006f          	j	a78 <add_entity_to_list+0x7c>
#     if (list[i])
     a24:	fdc42703          	lw	a4,-36(s0)
     a28:	fec42783          	lw	a5,-20(s0)
     a2c:	00f707b3          	add	a5,a4,a5
     a30:	0007c783          	lbu	a5,0(a5)
     a34:	02079a63          	bnez	a5,a68 <add_entity_to_list+0x6c>
#       continue;
#     list[i] = eid;
     a38:	fdc42703          	lw	a4,-36(s0)
     a3c:	fec42783          	lw	a5,-20(s0)
     a40:	00f707b3          	add	a5,a4,a5
     a44:	fd744703          	lbu	a4,-41(s0)
     a48:	00e78023          	sb	a4,0(a5)
#     list[i + 1] = 0;
     a4c:	fec42783          	lw	a5,-20(s0)
     a50:	00178793          	addi	a5,a5,1
     a54:	fdc42703          	lw	a4,-36(s0)
     a58:	00f707b3          	add	a5,a4,a5
     a5c:	00078023          	sb	zero,0(a5)
#     return TRUE;
     a60:	00100793          	li	a5,1
     a64:	0380006f          	j	a9c <add_entity_to_list+0xa0>
#       continue;
     a68:	00000013          	nop
#   for (unsigned i = 0; i < list_len - 1; i++) {
     a6c:	fec42783          	lw	a5,-20(s0)
     a70:	00178793          	addi	a5,a5,1
     a74:	fef42623          	sw	a5,-20(s0)
     a78:	fd842783          	lw	a5,-40(s0)
     a7c:	fff78793          	addi	a5,a5,-1
     a80:	fec42703          	lw	a4,-20(s0)
     a84:	faf760e3          	bltu	a4,a5,a24 <add_entity_to_list+0x28>
#   }
#   uart_send_str("location full\r\n");
     a88:	000027b7          	lui	a5,0x2
     a8c:	a5878513          	addi	a0,a5,-1448 # 1a58 <bmp280_read_temp+0x288>
     a90:	00001097          	auipc	ra,0x1
     a94:	97c080e7          	jalr	-1668(ra) # 140c <uart_send_str>
#   return FALSE;
     a98:	00000793          	li	a5,0
# }
     a9c:	00078513          	mv	a0,a5
     aa0:	02c12083          	lw	ra,44(sp)
     aa4:	02812403          	lw	s0,40(sp)
     aa8:	03010113          	addi	sp,sp,48
     aac:	00008067          	ret

00000ab0 <remove_entity_from_list>:
# 
# void remove_entity_from_list(entity_id list[], unsigned list_len,
#                              entity_id eid) {
     ab0:	fd010113          	addi	sp,sp,-48
     ab4:	02112623          	sw	ra,44(sp)
     ab8:	02812423          	sw	s0,40(sp)
     abc:	03010413          	addi	s0,sp,48
     ac0:	fca42e23          	sw	a0,-36(s0)
     ac4:	fcb42c23          	sw	a1,-40(s0)
     ac8:	00060793          	mv	a5,a2
     acc:	fcf40ba3          	sb	a5,-41(s0)
#   // list_len - 1 since last element has to be 0
#   for (unsigned i = 0; i < list_len - 1; i++) {
     ad0:	fe042623          	sw	zero,-20(s0)
     ad4:	0900006f          	j	b64 <remove_entity_from_list+0xb4>
#     if (list[i] != eid)
     ad8:	fdc42703          	lw	a4,-36(s0)
     adc:	fec42783          	lw	a5,-20(s0)
     ae0:	00f707b3          	add	a5,a4,a5
     ae4:	0007c783          	lbu	a5,0(a5)
     ae8:	fd744703          	lbu	a4,-41(s0)
     aec:	06f71463          	bne	a4,a5,b54 <remove_entity_from_list+0xa4>
#       continue;
#     // list_len - 1 since last element has to be 0
#     for (unsigned j = i; j < list_len - 1; j++) {
     af0:	fec42783          	lw	a5,-20(s0)
     af4:	fef42423          	sw	a5,-24(s0)
     af8:	0480006f          	j	b40 <remove_entity_from_list+0x90>
#       list[j] = list[j + 1];
     afc:	fe842783          	lw	a5,-24(s0)
     b00:	00178793          	addi	a5,a5,1
     b04:	fdc42703          	lw	a4,-36(s0)
     b08:	00f70733          	add	a4,a4,a5
     b0c:	fdc42683          	lw	a3,-36(s0)
     b10:	fe842783          	lw	a5,-24(s0)
     b14:	00f687b3          	add	a5,a3,a5
     b18:	00074703          	lbu	a4,0(a4) # 2000 <objects>
     b1c:	00e78023          	sb	a4,0(a5)
#       if (!list[j])
     b20:	fdc42703          	lw	a4,-36(s0)
     b24:	fe842783          	lw	a5,-24(s0)
     b28:	00f707b3          	add	a5,a4,a5
     b2c:	0007c783          	lbu	a5,0(a5)
     b30:	04078c63          	beqz	a5,b88 <remove_entity_from_list+0xd8>
#     for (unsigned j = i; j < list_len - 1; j++) {
     b34:	fe842783          	lw	a5,-24(s0)
     b38:	00178793          	addi	a5,a5,1
     b3c:	fef42423          	sw	a5,-24(s0)
     b40:	fd842783          	lw	a5,-40(s0)
     b44:	fff78793          	addi	a5,a5,-1
     b48:	fe842703          	lw	a4,-24(s0)
     b4c:	faf768e3          	bltu	a4,a5,afc <remove_entity_from_list+0x4c>
     b50:	0080006f          	j	b58 <remove_entity_from_list+0xa8>
#       continue;
     b54:	00000013          	nop
#   for (unsigned i = 0; i < list_len - 1; i++) {
     b58:	fec42783          	lw	a5,-20(s0)
     b5c:	00178793          	addi	a5,a5,1
     b60:	fef42623          	sw	a5,-20(s0)
     b64:	fd842783          	lw	a5,-40(s0)
     b68:	fff78793          	addi	a5,a5,-1
     b6c:	fec42703          	lw	a4,-20(s0)
     b70:	f6f764e3          	bltu	a4,a5,ad8 <remove_entity_from_list+0x28>
#         return;
#     }
#   }
#   uart_send_str("entity not here\r\n");
     b74:	000027b7          	lui	a5,0x2
     b78:	a6878513          	addi	a0,a5,-1432 # 1a68 <bmp280_read_temp+0x298>
     b7c:	00001097          	auipc	ra,0x1
     b80:	890080e7          	jalr	-1904(ra) # 140c <uart_send_str>
     b84:	0080006f          	j	b8c <remove_entity_from_list+0xdc>
#         return;
     b88:	00000013          	nop
# }
     b8c:	02c12083          	lw	ra,44(sp)
     b90:	02812403          	lw	s0,40(sp)
     b94:	03010113          	addi	sp,sp,48
     b98:	00008067          	ret

00000b9c <remove_entity_from_list_by_index>:
# 
# void remove_entity_from_list_by_index(entity_id list[], unsigned ix) {
     b9c:	fd010113          	addi	sp,sp,-48
     ba0:	02112623          	sw	ra,44(sp)
     ba4:	02812423          	sw	s0,40(sp)
     ba8:	03010413          	addi	s0,sp,48
     bac:	fca42e23          	sw	a0,-36(s0)
     bb0:	fcb42c23          	sw	a1,-40(s0)
#   entity_id *ptr = &list[ix];
     bb4:	fdc42703          	lw	a4,-36(s0)
     bb8:	fd842783          	lw	a5,-40(s0)
     bbc:	00f707b3          	add	a5,a4,a5
     bc0:	fef42623          	sw	a5,-20(s0)
#   while (1) {
#     *ptr = *(ptr + 1);
     bc4:	fec42783          	lw	a5,-20(s0)
     bc8:	0017c703          	lbu	a4,1(a5)
     bcc:	fec42783          	lw	a5,-20(s0)
     bd0:	00e78023          	sb	a4,0(a5)
#     if (!*ptr)
     bd4:	fec42783          	lw	a5,-20(s0)
     bd8:	0007c783          	lbu	a5,0(a5)
     bdc:	00078a63          	beqz	a5,bf0 <remove_entity_from_list_by_index+0x54>
#       return;
#     ptr++;
     be0:	fec42783          	lw	a5,-20(s0)
     be4:	00178793          	addi	a5,a5,1
     be8:	fef42623          	sw	a5,-20(s0)
#     *ptr = *(ptr + 1);
     bec:	fd9ff06f          	j	bc4 <remove_entity_from_list_by_index+0x28>
#       return;
     bf0:	00000013          	nop
#   }
# }
     bf4:	02c12083          	lw	ra,44(sp)
     bf8:	02812403          	lw	s0,40(sp)
     bfc:	03010113          	addi	sp,sp,48
     c00:	00008067          	ret

00000c04 <action_take>:
# 
# void action_take(entity_id eid, name obj) {
     c04:	fd010113          	addi	sp,sp,-48
     c08:	02112623          	sw	ra,44(sp)
     c0c:	02812423          	sw	s0,40(sp)
     c10:	03010413          	addi	s0,sp,48
     c14:	00050793          	mv	a5,a0
     c18:	fcb42c23          	sw	a1,-40(s0)
     c1c:	fcf40fa3          	sb	a5,-33(s0)
#   entity *ent = &entities[eid];
     c20:	fdf44703          	lbu	a4,-33(s0)
     c24:	00070793          	mv	a5,a4
     c28:	00279793          	slli	a5,a5,0x2
     c2c:	00e787b3          	add	a5,a5,a4
     c30:	00379793          	slli	a5,a5,0x3
     c34:	00002737          	lui	a4,0x2
     c38:	01070713          	addi	a4,a4,16 # 2010 <entities>
     c3c:	00e787b3          	add	a5,a5,a4
     c40:	fef42423          	sw	a5,-24(s0)
#   object_id *lso = locations[ent->location].objects;
     c44:	fe842783          	lw	a5,-24(s0)
     c48:	0047c783          	lbu	a5,4(a5)
     c4c:	00078713          	mv	a4,a5
     c50:	00070793          	mv	a5,a4
     c54:	00379793          	slli	a5,a5,0x3
     c58:	00e787b3          	add	a5,a5,a4
     c5c:	00279793          	slli	a5,a5,0x2
     c60:	00e787b3          	add	a5,a5,a4
     c64:	00279793          	slli	a5,a5,0x2
     c68:	00002737          	lui	a4,0x2
     c6c:	08870713          	addi	a4,a4,136 # 2088 <locations>
     c70:	00e787b3          	add	a5,a5,a4
     c74:	00478793          	addi	a5,a5,4
     c78:	fef42223          	sw	a5,-28(s0)
#   for (unsigned i = 0; i < LOCATION_MAX_OBJECTS; i++) {
     c7c:	fe042623          	sw	zero,-20(s0)
     c80:	09c0006f          	j	d1c <action_take+0x118>
#     const object_id oid = lso[i];
     c84:	fe442703          	lw	a4,-28(s0)
     c88:	fec42783          	lw	a5,-20(s0)
     c8c:	00f707b3          	add	a5,a4,a5
     c90:	0007c783          	lbu	a5,0(a5)
     c94:	fef401a3          	sb	a5,-29(s0)
#     if (!oid)
     c98:	fe344783          	lbu	a5,-29(s0)
     c9c:	08078863          	beqz	a5,d2c <action_take+0x128>
#       break;
#     if (!strings_equal(objects[oid].name, obj))
     ca0:	fe344783          	lbu	a5,-29(s0)
     ca4:	00002737          	lui	a4,0x2
     ca8:	00070713          	mv	a4,a4
     cac:	00279793          	slli	a5,a5,0x2
     cb0:	00f707b3          	add	a5,a4,a5
     cb4:	0007a783          	lw	a5,0(a5)
     cb8:	fd842583          	lw	a1,-40(s0)
     cbc:	00078513          	mv	a0,a5
     cc0:	00000097          	auipc	ra,0x0
     cc4:	6c8080e7          	jalr	1736(ra) # 1388 <strings_equal>
     cc8:	00050793          	mv	a5,a0
     ccc:	04078063          	beqz	a5,d0c <action_take+0x108>
#       continue;
#     if (add_object_to_list(ent->objects, ENTITY_MAX_OBJECTS, oid)) {
     cd0:	fe842783          	lw	a5,-24(s0)
     cd4:	00578793          	addi	a5,a5,5
     cd8:	fe344703          	lbu	a4,-29(s0)
     cdc:	00070613          	mv	a2,a4
     ce0:	02000593          	li	a1,32
     ce4:	00078513          	mv	a0,a5
     ce8:	00000097          	auipc	ra,0x0
     cec:	c60080e7          	jalr	-928(ra) # 948 <add_object_to_list>
     cf0:	00050793          	mv	a5,a0
     cf4:	04078e63          	beqz	a5,d50 <action_take+0x14c>
#       remove_object_from_list_by_index(lso, i);
     cf8:	fec42583          	lw	a1,-20(s0)
     cfc:	fe442503          	lw	a0,-28(s0)
     d00:	00000097          	auipc	ra,0x0
     d04:	be0080e7          	jalr	-1056(ra) # 8e0 <remove_object_from_list_by_index>
#     }
#     return;
     d08:	0480006f          	j	d50 <action_take+0x14c>
#       continue;
     d0c:	00000013          	nop
#   for (unsigned i = 0; i < LOCATION_MAX_OBJECTS; i++) {
     d10:	fec42783          	lw	a5,-20(s0)
     d14:	00178793          	addi	a5,a5,1
     d18:	fef42623          	sw	a5,-20(s0)
     d1c:	fec42703          	lw	a4,-20(s0)
     d20:	07f00793          	li	a5,127
     d24:	f6e7f0e3          	bgeu	a5,a4,c84 <action_take+0x80>
     d28:	0080006f          	j	d30 <action_take+0x12c>
#       break;
     d2c:	00000013          	nop
#   }
#   uart_send_str(obj);
     d30:	fd842503          	lw	a0,-40(s0)
     d34:	00000097          	auipc	ra,0x0
     d38:	6d8080e7          	jalr	1752(ra) # 140c <uart_send_str>
#   uart_send_str(" not here\r\n\r\n");
     d3c:	000027b7          	lui	a5,0x2
     d40:	a7c78513          	addi	a0,a5,-1412 # 1a7c <bmp280_read_temp+0x2ac>
     d44:	00000097          	auipc	ra,0x0
     d48:	6c8080e7          	jalr	1736(ra) # 140c <uart_send_str>
     d4c:	0080006f          	j	d54 <action_take+0x150>
#     return;
     d50:	00000013          	nop
# }
     d54:	02c12083          	lw	ra,44(sp)
     d58:	02812403          	lw	s0,40(sp)
     d5c:	03010113          	addi	sp,sp,48
     d60:	00008067          	ret

00000d64 <action_drop>:
# 
# void action_drop(entity_id eid, name obj) {
     d64:	fd010113          	addi	sp,sp,-48
     d68:	02112623          	sw	ra,44(sp)
     d6c:	02812423          	sw	s0,40(sp)
     d70:	03010413          	addi	s0,sp,48
     d74:	00050793          	mv	a5,a0
     d78:	fcb42c23          	sw	a1,-40(s0)
     d7c:	fcf40fa3          	sb	a5,-33(s0)
#   entity *ent = &entities[eid];
     d80:	fdf44703          	lbu	a4,-33(s0)
     d84:	00070793          	mv	a5,a4
     d88:	00279793          	slli	a5,a5,0x2
     d8c:	00e787b3          	add	a5,a5,a4
     d90:	00379793          	slli	a5,a5,0x3
     d94:	00002737          	lui	a4,0x2
     d98:	01070713          	addi	a4,a4,16 # 2010 <entities>
     d9c:	00e787b3          	add	a5,a5,a4
     da0:	fef42423          	sw	a5,-24(s0)
#   object_id *lso = ent->objects;
     da4:	fe842783          	lw	a5,-24(s0)
     da8:	00578793          	addi	a5,a5,5
     dac:	fef42223          	sw	a5,-28(s0)
#   for (unsigned i = 0; i < ENTITY_MAX_OBJECTS; i++) {
     db0:	fe042623          	sw	zero,-20(s0)
     db4:	0c80006f          	j	e7c <action_drop+0x118>
#     const object_id oid = lso[i];
     db8:	fe442703          	lw	a4,-28(s0)
     dbc:	fec42783          	lw	a5,-20(s0)
     dc0:	00f707b3          	add	a5,a4,a5
     dc4:	0007c783          	lbu	a5,0(a5)
     dc8:	fef401a3          	sb	a5,-29(s0)
#     if (!oid)
     dcc:	fe344783          	lbu	a5,-29(s0)
     dd0:	0a078e63          	beqz	a5,e8c <action_drop+0x128>
#       break;
#     if (!strings_equal(objects[oid].name, obj))
     dd4:	fe344783          	lbu	a5,-29(s0)
     dd8:	00002737          	lui	a4,0x2
     ddc:	00070713          	mv	a4,a4
     de0:	00279793          	slli	a5,a5,0x2
     de4:	00f707b3          	add	a5,a4,a5
     de8:	0007a783          	lw	a5,0(a5)
     dec:	fd842583          	lw	a1,-40(s0)
     df0:	00078513          	mv	a0,a5
     df4:	00000097          	auipc	ra,0x0
     df8:	594080e7          	jalr	1428(ra) # 1388 <strings_equal>
     dfc:	00050793          	mv	a5,a0
     e00:	06078663          	beqz	a5,e6c <action_drop+0x108>
#       continue;
#     if (add_object_to_list(locations[ent->location].objects,
     e04:	fe842783          	lw	a5,-24(s0)
     e08:	0047c783          	lbu	a5,4(a5)
     e0c:	00078713          	mv	a4,a5
     e10:	00070793          	mv	a5,a4
     e14:	00379793          	slli	a5,a5,0x3
     e18:	00e787b3          	add	a5,a5,a4
     e1c:	00279793          	slli	a5,a5,0x2
     e20:	00e787b3          	add	a5,a5,a4
     e24:	00279793          	slli	a5,a5,0x2
     e28:	00002737          	lui	a4,0x2
     e2c:	08870713          	addi	a4,a4,136 # 2088 <locations>
     e30:	00e787b3          	add	a5,a5,a4
     e34:	00478793          	addi	a5,a5,4
     e38:	fe344703          	lbu	a4,-29(s0)
     e3c:	00070613          	mv	a2,a4
     e40:	08000593          	li	a1,128
     e44:	00078513          	mv	a0,a5
     e48:	00000097          	auipc	ra,0x0
     e4c:	b00080e7          	jalr	-1280(ra) # 948 <add_object_to_list>
     e50:	00050793          	mv	a5,a0
     e54:	06078663          	beqz	a5,ec0 <action_drop+0x15c>
#                            LOCATION_MAX_OBJECTS, oid)) {
#       remove_object_from_list_by_index(lso, i);
     e58:	fec42583          	lw	a1,-20(s0)
     e5c:	fe442503          	lw	a0,-28(s0)
     e60:	00000097          	auipc	ra,0x0
     e64:	a80080e7          	jalr	-1408(ra) # 8e0 <remove_object_from_list_by_index>
#     }
#     return;
     e68:	0580006f          	j	ec0 <action_drop+0x15c>
#       continue;
     e6c:	00000013          	nop
#   for (unsigned i = 0; i < ENTITY_MAX_OBJECTS; i++) {
     e70:	fec42783          	lw	a5,-20(s0)
     e74:	00178793          	addi	a5,a5,1
     e78:	fef42623          	sw	a5,-20(s0)
     e7c:	fec42703          	lw	a4,-20(s0)
     e80:	01f00793          	li	a5,31
     e84:	f2e7fae3          	bgeu	a5,a4,db8 <action_drop+0x54>
     e88:	0080006f          	j	e90 <action_drop+0x12c>
#       break;
     e8c:	00000013          	nop
#   }
#   uart_send_str("u don't have ");
     e90:	000027b7          	lui	a5,0x2
     e94:	a8c78513          	addi	a0,a5,-1396 # 1a8c <bmp280_read_temp+0x2bc>
     e98:	00000097          	auipc	ra,0x0
     e9c:	574080e7          	jalr	1396(ra) # 140c <uart_send_str>
#   uart_send_str(obj);
     ea0:	fd842503          	lw	a0,-40(s0)
     ea4:	00000097          	auipc	ra,0x0
     ea8:	568080e7          	jalr	1384(ra) # 140c <uart_send_str>
#   uart_send_str("\r\n\r\n");
     eac:	000027b7          	lui	a5,0x2
     eb0:	a9c78513          	addi	a0,a5,-1380 # 1a9c <bmp280_read_temp+0x2cc>
     eb4:	00000097          	auipc	ra,0x0
     eb8:	558080e7          	jalr	1368(ra) # 140c <uart_send_str>
     ebc:	0080006f          	j	ec4 <action_drop+0x160>
#     return;
     ec0:	00000013          	nop
# }
     ec4:	02c12083          	lw	ra,44(sp)
     ec8:	02812403          	lw	s0,40(sp)
     ecc:	03010113          	addi	sp,sp,48
     ed0:	00008067          	ret

00000ed4 <action_go>:
# 
# void action_go(entity_id eid, direction dir) {
     ed4:	fd010113          	addi	sp,sp,-48
     ed8:	02112623          	sw	ra,44(sp)
     edc:	02812423          	sw	s0,40(sp)
     ee0:	03010413          	addi	s0,sp,48
     ee4:	00050793          	mv	a5,a0
     ee8:	00058713          	mv	a4,a1
     eec:	fcf40fa3          	sb	a5,-33(s0)
     ef0:	00070793          	mv	a5,a4
     ef4:	fcf40f23          	sb	a5,-34(s0)
#   entity *ent = &entities[eid];
     ef8:	fdf44703          	lbu	a4,-33(s0)
     efc:	00070793          	mv	a5,a4
     f00:	00279793          	slli	a5,a5,0x2
     f04:	00e787b3          	add	a5,a5,a4
     f08:	00379793          	slli	a5,a5,0x3
     f0c:	00002737          	lui	a4,0x2
     f10:	01070713          	addi	a4,a4,16 # 2010 <entities>
     f14:	00e787b3          	add	a5,a5,a4
     f18:	fef42623          	sw	a5,-20(s0)
#   location *loc = &locations[ent->location];
     f1c:	fec42783          	lw	a5,-20(s0)
     f20:	0047c783          	lbu	a5,4(a5)
     f24:	00078713          	mv	a4,a5
     f28:	00070793          	mv	a5,a4
     f2c:	00379793          	slli	a5,a5,0x3
     f30:	00e787b3          	add	a5,a5,a4
     f34:	00279793          	slli	a5,a5,0x2
     f38:	00e787b3          	add	a5,a5,a4
     f3c:	00279793          	slli	a5,a5,0x2
     f40:	00002737          	lui	a4,0x2
     f44:	08870713          	addi	a4,a4,136 # 2088 <locations>
     f48:	00e787b3          	add	a5,a5,a4
     f4c:	fef42423          	sw	a5,-24(s0)
#   const location_id to = loc->exits[dir];
     f50:	fde44783          	lbu	a5,-34(s0)
     f54:	fe842703          	lw	a4,-24(s0)
     f58:	00f707b3          	add	a5,a4,a5
     f5c:	08c7c783          	lbu	a5,140(a5)
     f60:	fef403a3          	sb	a5,-25(s0)
#   if (!to) {
     f64:	fe744783          	lbu	a5,-25(s0)
     f68:	00079c63          	bnez	a5,f80 <action_go+0xac>
#     uart_send_str("cannot go there\r\n\r\n");
     f6c:	000027b7          	lui	a5,0x2
     f70:	aa478513          	addi	a0,a5,-1372 # 1aa4 <bmp280_read_temp+0x2d4>
     f74:	00000097          	auipc	ra,0x0
     f78:	498080e7          	jalr	1176(ra) # 140c <uart_send_str>
#     return;
     f7c:	0800006f          	j	ffc <action_go+0x128>
#   }
#   if (add_entity_to_list(locations[to].entities, LOCATION_MAX_ENTITIES, eid)) {
     f80:	fe744703          	lbu	a4,-25(s0)
     f84:	00070793          	mv	a5,a4
     f88:	00379793          	slli	a5,a5,0x3
     f8c:	00e787b3          	add	a5,a5,a4
     f90:	00279793          	slli	a5,a5,0x2
     f94:	00e787b3          	add	a5,a5,a4
     f98:	00279793          	slli	a5,a5,0x2
     f9c:	08078713          	addi	a4,a5,128
     fa0:	000027b7          	lui	a5,0x2
     fa4:	08878793          	addi	a5,a5,136 # 2088 <locations>
     fa8:	00f707b3          	add	a5,a4,a5
     fac:	00478793          	addi	a5,a5,4
     fb0:	fdf44703          	lbu	a4,-33(s0)
     fb4:	00070613          	mv	a2,a4
     fb8:	00800593          	li	a1,8
     fbc:	00078513          	mv	a0,a5
     fc0:	00000097          	auipc	ra,0x0
     fc4:	a3c080e7          	jalr	-1476(ra) # 9fc <add_entity_to_list>
     fc8:	00050793          	mv	a5,a0
     fcc:	02078863          	beqz	a5,ffc <action_go+0x128>
#     remove_entity_from_list(loc->entities, LOCATION_MAX_ENTITIES, eid);
     fd0:	fe842783          	lw	a5,-24(s0)
     fd4:	08478793          	addi	a5,a5,132
     fd8:	fdf44703          	lbu	a4,-33(s0)
     fdc:	00070613          	mv	a2,a4
     fe0:	00800593          	li	a1,8
     fe4:	00078513          	mv	a0,a5
     fe8:	00000097          	auipc	ra,0x0
     fec:	ac8080e7          	jalr	-1336(ra) # ab0 <remove_entity_from_list>
#     ent->location = to;
     ff0:	fec42783          	lw	a5,-20(s0)
     ff4:	fe744703          	lbu	a4,-25(s0)
     ff8:	00e78223          	sb	a4,4(a5)
#   }
# }
     ffc:	02c12083          	lw	ra,44(sp)
    1000:	02812403          	lw	s0,40(sp)
    1004:	03010113          	addi	sp,sp,48
    1008:	00008067          	ret

0000100c <action_give>:
# 
# void action_give(entity_id eid, name obj, name to_ent) {
    100c:	fc010113          	addi	sp,sp,-64
    1010:	02112e23          	sw	ra,60(sp)
    1014:	02812c23          	sw	s0,56(sp)
    1018:	04010413          	addi	s0,sp,64
    101c:	00050793          	mv	a5,a0
    1020:	fcb42423          	sw	a1,-56(s0)
    1024:	fcc42223          	sw	a2,-60(s0)
    1028:	fcf407a3          	sb	a5,-49(s0)
#   entity *ent = &entities[eid];
    102c:	fcf44703          	lbu	a4,-49(s0)
    1030:	00070793          	mv	a5,a4
    1034:	00279793          	slli	a5,a5,0x2
    1038:	00e787b3          	add	a5,a5,a4
    103c:	00379793          	slli	a5,a5,0x3
    1040:	00002737          	lui	a4,0x2
    1044:	01070713          	addi	a4,a4,16 # 2010 <entities>
    1048:	00e787b3          	add	a5,a5,a4
    104c:	fef42223          	sw	a5,-28(s0)
#   const location *loc = &locations[ent->location];
    1050:	fe442783          	lw	a5,-28(s0)
    1054:	0047c783          	lbu	a5,4(a5)
    1058:	00078713          	mv	a4,a5
    105c:	00070793          	mv	a5,a4
    1060:	00379793          	slli	a5,a5,0x3
    1064:	00e787b3          	add	a5,a5,a4
    1068:	00279793          	slli	a5,a5,0x2
    106c:	00e787b3          	add	a5,a5,a4
    1070:	00279793          	slli	a5,a5,0x2
    1074:	00002737          	lui	a4,0x2
    1078:	08870713          	addi	a4,a4,136 # 2088 <locations>
    107c:	00e787b3          	add	a5,a5,a4
    1080:	fef42023          	sw	a5,-32(s0)
#   const entity_id *lse = loc->entities;
    1084:	fe042783          	lw	a5,-32(s0)
    1088:	08478793          	addi	a5,a5,132
    108c:	fcf42e23          	sw	a5,-36(s0)
#   for (unsigned i = 0; i < LOCATION_MAX_ENTITIES; i++) {
    1090:	fe042623          	sw	zero,-20(s0)
    1094:	15c0006f          	j	11f0 <action_give+0x1e4>
#     if (!lse[i])
    1098:	fdc42703          	lw	a4,-36(s0)
    109c:	fec42783          	lw	a5,-20(s0)
    10a0:	00f707b3          	add	a5,a4,a5
    10a4:	0007c783          	lbu	a5,0(a5)
    10a8:	14078c63          	beqz	a5,1200 <action_give+0x1f4>
#       break;
#     entity *to = &entities[lse[i]];
    10ac:	fdc42703          	lw	a4,-36(s0)
    10b0:	fec42783          	lw	a5,-20(s0)
    10b4:	00f707b3          	add	a5,a4,a5
    10b8:	0007c783          	lbu	a5,0(a5)
    10bc:	00078713          	mv	a4,a5
    10c0:	00070793          	mv	a5,a4
    10c4:	00279793          	slli	a5,a5,0x2
    10c8:	00e787b3          	add	a5,a5,a4
    10cc:	00379793          	slli	a5,a5,0x3
    10d0:	00002737          	lui	a4,0x2
    10d4:	01070713          	addi	a4,a4,16 # 2010 <entities>
    10d8:	00e787b3          	add	a5,a5,a4
    10dc:	fcf42c23          	sw	a5,-40(s0)
#     if (!strings_equal(to->name, to_ent))
    10e0:	fd842783          	lw	a5,-40(s0)
    10e4:	0007a783          	lw	a5,0(a5)
    10e8:	fc442583          	lw	a1,-60(s0)
    10ec:	00078513          	mv	a0,a5
    10f0:	00000097          	auipc	ra,0x0
    10f4:	298080e7          	jalr	664(ra) # 1388 <strings_equal>
    10f8:	00050793          	mv	a5,a0
    10fc:	0e078263          	beqz	a5,11e0 <action_give+0x1d4>
#       continue;
#     object_id *lso = ent->objects;
    1100:	fe442783          	lw	a5,-28(s0)
    1104:	00578793          	addi	a5,a5,5
    1108:	fcf42a23          	sw	a5,-44(s0)
#     for (unsigned j = 0; j < ENTITY_MAX_OBJECTS; j++) {
    110c:	fe042423          	sw	zero,-24(s0)
    1110:	09c0006f          	j	11ac <action_give+0x1a0>
#       const object_id oid = lso[j];
    1114:	fd442703          	lw	a4,-44(s0)
    1118:	fe842783          	lw	a5,-24(s0)
    111c:	00f707b3          	add	a5,a4,a5
    1120:	0007c783          	lbu	a5,0(a5)
    1124:	fcf409a3          	sb	a5,-45(s0)
#       if (!oid)
    1128:	fd344783          	lbu	a5,-45(s0)
    112c:	08078863          	beqz	a5,11bc <action_give+0x1b0>
#         break;
#       if (!strings_equal(objects[oid].name, obj))
    1130:	fd344783          	lbu	a5,-45(s0)
    1134:	00002737          	lui	a4,0x2
    1138:	00070713          	mv	a4,a4
    113c:	00279793          	slli	a5,a5,0x2
    1140:	00f707b3          	add	a5,a4,a5
    1144:	0007a783          	lw	a5,0(a5)
    1148:	fc842583          	lw	a1,-56(s0)
    114c:	00078513          	mv	a0,a5
    1150:	00000097          	auipc	ra,0x0
    1154:	238080e7          	jalr	568(ra) # 1388 <strings_equal>
    1158:	00050793          	mv	a5,a0
    115c:	04078063          	beqz	a5,119c <action_give+0x190>
#         continue;
#       if (add_object_to_list(to->objects, ENTITY_MAX_OBJECTS, oid)) {
    1160:	fd842783          	lw	a5,-40(s0)
    1164:	00578793          	addi	a5,a5,5
    1168:	fd344703          	lbu	a4,-45(s0)
    116c:	00070613          	mv	a2,a4
    1170:	02000593          	li	a1,32
    1174:	00078513          	mv	a0,a5
    1178:	fffff097          	auipc	ra,0xfffff
    117c:	7d0080e7          	jalr	2000(ra) # 948 <add_object_to_list>
    1180:	00050793          	mv	a5,a0
    1184:	0a078063          	beqz	a5,1224 <action_give+0x218>
#         remove_object_from_list_by_index(lso, j);
    1188:	fe842583          	lw	a1,-24(s0)
    118c:	fd442503          	lw	a0,-44(s0)
    1190:	fffff097          	auipc	ra,0xfffff
    1194:	750080e7          	jalr	1872(ra) # 8e0 <remove_object_from_list_by_index>
#       }
#       return;
    1198:	08c0006f          	j	1224 <action_give+0x218>
#         continue;
    119c:	00000013          	nop
#     for (unsigned j = 0; j < ENTITY_MAX_OBJECTS; j++) {
    11a0:	fe842783          	lw	a5,-24(s0)
    11a4:	00178793          	addi	a5,a5,1
    11a8:	fef42423          	sw	a5,-24(s0)
    11ac:	fe842703          	lw	a4,-24(s0)
    11b0:	01f00793          	li	a5,31
    11b4:	f6e7f0e3          	bgeu	a5,a4,1114 <action_give+0x108>
    11b8:	0080006f          	j	11c0 <action_give+0x1b4>
#         break;
    11bc:	00000013          	nop
#     }
#     uart_send_str(obj);
    11c0:	fc842503          	lw	a0,-56(s0)
    11c4:	00000097          	auipc	ra,0x0
    11c8:	248080e7          	jalr	584(ra) # 140c <uart_send_str>
#     uart_send_str(" not in inventory\r\n\r\n");
    11cc:	000027b7          	lui	a5,0x2
    11d0:	ab878513          	addi	a0,a5,-1352 # 1ab8 <bmp280_read_temp+0x2e8>
    11d4:	00000097          	auipc	ra,0x0
    11d8:	238080e7          	jalr	568(ra) # 140c <uart_send_str>
#     return;
    11dc:	04c0006f          	j	1228 <action_give+0x21c>
#       continue;
    11e0:	00000013          	nop
#   for (unsigned i = 0; i < LOCATION_MAX_ENTITIES; i++) {
    11e4:	fec42783          	lw	a5,-20(s0)
    11e8:	00178793          	addi	a5,a5,1
    11ec:	fef42623          	sw	a5,-20(s0)
    11f0:	fec42703          	lw	a4,-20(s0)
    11f4:	00700793          	li	a5,7
    11f8:	eae7f0e3          	bgeu	a5,a4,1098 <action_give+0x8c>
    11fc:	0080006f          	j	1204 <action_give+0x1f8>
#       break;
    1200:	00000013          	nop
#   }
#   uart_send_str(to_ent);
    1204:	fc442503          	lw	a0,-60(s0)
    1208:	00000097          	auipc	ra,0x0
    120c:	204080e7          	jalr	516(ra) # 140c <uart_send_str>
#   uart_send_str(" is not here\r\n\r\n");
    1210:	000027b7          	lui	a5,0x2
    1214:	ad078513          	addi	a0,a5,-1328 # 1ad0 <bmp280_read_temp+0x300>
    1218:	00000097          	auipc	ra,0x0
    121c:	1f4080e7          	jalr	500(ra) # 140c <uart_send_str>
    1220:	0080006f          	j	1228 <action_give+0x21c>
#       return;
    1224:	00000013          	nop
# }
    1228:	03c12083          	lw	ra,60(sp)
    122c:	03812403          	lw	s0,56(sp)
    1230:	04010113          	addi	sp,sp,64
    1234:	00008067          	ret

00001238 <print_help>:
# 
# void print_help() {
    1238:	ff010113          	addi	sp,sp,-16
    123c:	00112623          	sw	ra,12(sp)
    1240:	00812423          	sw	s0,8(sp)
    1244:	01010413          	addi	s0,sp,16
#   uart_send_str(
    1248:	000027b7          	lui	a5,0x2
    124c:	ae478513          	addi	a0,a5,-1308 # 1ae4 <bmp280_read_temp+0x314>
    1250:	00000097          	auipc	ra,0x0
    1254:	1bc080e7          	jalr	444(ra) # 140c <uart_send_str>
#       "\r\ncommand:\r\n  n: go north\r\n  e: go east\r\n  s: go south\r\n  w: "
#       "go west\r\n  i: "
#       "display inventory\r\n  t <object>: take object\r\n  d <object>: drop "
#       "object\r\n  g <object> <entity>: give object to entity\r\n  sensor: read BMP280\r\n  help: this "
#       "message\r\n\r\n");
# }
    1258:	00000013          	nop
    125c:	00c12083          	lw	ra,12(sp)
    1260:	00812403          	lw	s0,8(sp)
    1264:	01010113          	addi	sp,sp,16
    1268:	00008067          	ret

0000126c <input>:
# 
# void input(input_buffer *buf) {
    126c:	fd010113          	addi	sp,sp,-48
    1270:	02112623          	sw	ra,44(sp)
    1274:	02812423          	sw	s0,40(sp)
    1278:	03010413          	addi	s0,sp,48
    127c:	fca42e23          	sw	a0,-36(s0)
#   while (1) {
#     const char ch = uart_read_char();
    1280:	00000097          	auipc	ra,0x0
    1284:	318080e7          	jalr	792(ra) # 1598 <uart_read_char>
    1288:	00050793          	mv	a5,a0
    128c:	fef407a3          	sb	a5,-17(s0)
#     if (ch == CHAR_BACKSPACE) {
    1290:	fef44703          	lbu	a4,-17(s0)
    1294:	07f00793          	li	a5,127
    1298:	02f71e63          	bne	a4,a5,12d4 <input+0x68>
#       if (buf->ix > 0) {
    129c:	fdc42783          	lw	a5,-36(s0)
    12a0:	0507c783          	lbu	a5,80(a5)
    12a4:	0a078a63          	beqz	a5,1358 <input+0xec>
#         buf->ix--;
    12a8:	fdc42783          	lw	a5,-36(s0)
    12ac:	0507c783          	lbu	a5,80(a5)
    12b0:	fff78793          	addi	a5,a5,-1
    12b4:	0ff7f713          	zext.b	a4,a5
    12b8:	fdc42783          	lw	a5,-36(s0)
    12bc:	04e78823          	sb	a4,80(a5)
#         uart_send_char(ch);
    12c0:	fef44783          	lbu	a5,-17(s0)
    12c4:	00078513          	mv	a0,a5
    12c8:	00000097          	auipc	ra,0x0
    12cc:	27c080e7          	jalr	636(ra) # 1544 <uart_send_char>
    12d0:	0880006f          	j	1358 <input+0xec>
#       }
#     } else if (ch == CHAR_CARRIAGE_RETURN ||
    12d4:	fef44703          	lbu	a4,-17(s0)
    12d8:	00d00793          	li	a5,13
    12dc:	00f70a63          	beq	a4,a5,12f0 <input+0x84>
#                buf->ix ==
    12e0:	fdc42783          	lw	a5,-36(s0)
    12e4:	0507c703          	lbu	a4,80(a5)
#     } else if (ch == CHAR_CARRIAGE_RETURN ||
    12e8:	04f00793          	li	a5,79
    12ec:	02f71463          	bne	a4,a5,1314 <input+0xa8>
#                    sizeof(buf->line) - 1) { // -1 since last char must be 0
#       buf->line[buf->ix] = 0;
    12f0:	fdc42783          	lw	a5,-36(s0)
    12f4:	0507c783          	lbu	a5,80(a5)
    12f8:	00078713          	mv	a4,a5
    12fc:	fdc42783          	lw	a5,-36(s0)
    1300:	00e787b3          	add	a5,a5,a4
    1304:	00078023          	sb	zero,0(a5)
#       buf->ix = 0;
    1308:	fdc42783          	lw	a5,-36(s0)
    130c:	04078823          	sb	zero,80(a5)
#       return;
    1310:	0680006f          	j	1378 <input+0x10c>
#     } else {
#       buf->line[buf->ix] = ch;
    1314:	fdc42783          	lw	a5,-36(s0)
    1318:	0507c783          	lbu	a5,80(a5)
    131c:	00078713          	mv	a4,a5
    1320:	fdc42783          	lw	a5,-36(s0)
    1324:	00e787b3          	add	a5,a5,a4
    1328:	fef44703          	lbu	a4,-17(s0)
    132c:	00e78023          	sb	a4,0(a5)
#       buf->ix++;
    1330:	fdc42783          	lw	a5,-36(s0)
    1334:	0507c783          	lbu	a5,80(a5)
    1338:	00178793          	addi	a5,a5,1
    133c:	0ff7f713          	zext.b	a4,a5
    1340:	fdc42783          	lw	a5,-36(s0)
    1344:	04e78823          	sb	a4,80(a5)
#       uart_send_char(ch);
    1348:	fef44783          	lbu	a5,-17(s0)
    134c:	00078513          	mv	a0,a5
    1350:	00000097          	auipc	ra,0x0
    1354:	1f4080e7          	jalr	500(ra) # 1544 <uart_send_char>
#     }
#     *leds = ~buf->ix;
    1358:	fdc42783          	lw	a5,-36(s0)
    135c:	0507c703          	lbu	a4,80(a5)
    1360:	000027b7          	lui	a5,0x2
    1364:	3847a783          	lw	a5,900(a5) # 2384 <leds>
    1368:	fff74713          	not	a4,a4
    136c:	0ff77713          	zext.b	a4,a4
    1370:	00e78023          	sb	a4,0(a5)
#   while (1) {
    1374:	f0dff06f          	j	1280 <input+0x14>
#   }
# }
    1378:	02c12083          	lw	ra,44(sp)
    137c:	02812403          	lw	s0,40(sp)
    1380:	03010113          	addi	sp,sp,48
    1384:	00008067          	ret

00001388 <strings_equal>:
# 
# unsigned char strings_equal(const char *s1, const char *s2) {
    1388:	fe010113          	addi	sp,sp,-32
    138c:	00112e23          	sw	ra,28(sp)
    1390:	00812c23          	sw	s0,24(sp)
    1394:	02010413          	addi	s0,sp,32
    1398:	fea42623          	sw	a0,-20(s0)
    139c:	feb42423          	sw	a1,-24(s0)
#   while (1) {
#     if (*s1 - *s2)
    13a0:	fec42783          	lw	a5,-20(s0)
    13a4:	0007c703          	lbu	a4,0(a5)
    13a8:	fe842783          	lw	a5,-24(s0)
    13ac:	0007c783          	lbu	a5,0(a5)
    13b0:	00f70663          	beq	a4,a5,13bc <strings_equal+0x34>
#       return FALSE;
    13b4:	00000793          	li	a5,0
    13b8:	0400006f          	j	13f8 <strings_equal+0x70>
#     if (!*s1 && !*s2)
    13bc:	fec42783          	lw	a5,-20(s0)
    13c0:	0007c783          	lbu	a5,0(a5)
    13c4:	00079c63          	bnez	a5,13dc <strings_equal+0x54>
    13c8:	fe842783          	lw	a5,-24(s0)
    13cc:	0007c783          	lbu	a5,0(a5)
    13d0:	00079663          	bnez	a5,13dc <strings_equal+0x54>
#       return TRUE;
    13d4:	00100793          	li	a5,1
    13d8:	0200006f          	j	13f8 <strings_equal+0x70>
#     s1++;
    13dc:	fec42783          	lw	a5,-20(s0)
    13e0:	00178793          	addi	a5,a5,1
    13e4:	fef42623          	sw	a5,-20(s0)
#     s2++;
    13e8:	fe842783          	lw	a5,-24(s0)
    13ec:	00178793          	addi	a5,a5,1
    13f0:	fef42423          	sw	a5,-24(s0)
#     if (*s1 - *s2)
    13f4:	fadff06f          	j	13a0 <strings_equal+0x18>
#   }
# }
    13f8:	00078513          	mv	a0,a5
    13fc:	01c12083          	lw	ra,28(sp)
    1400:	01812403          	lw	s0,24(sp)
    1404:	02010113          	addi	sp,sp,32
    1408:	00008067          	ret

0000140c <uart_send_str>:
# 
# void uart_send_str(const char *str) {
    140c:	fe010113          	addi	sp,sp,-32
    1410:	00112e23          	sw	ra,28(sp)
    1414:	00812c23          	sw	s0,24(sp)
    1418:	02010413          	addi	s0,sp,32
    141c:	fea42623          	sw	a0,-20(s0)
#   while (*str) {
    1420:	0380006f          	j	1458 <uart_send_str+0x4c>
#     while (*uart_out)
    1424:	00000013          	nop
    1428:	000027b7          	lui	a5,0x2
    142c:	3887a783          	lw	a5,904(a5) # 2388 <uart_out>
    1430:	0007c783          	lbu	a5,0(a5)
    1434:	0ff7f793          	zext.b	a5,a5
    1438:	fe0798e3          	bnez	a5,1428 <uart_send_str+0x1c>
#       ;
#     *uart_out = *str++;
    143c:	fec42783          	lw	a5,-20(s0)
    1440:	00178713          	addi	a4,a5,1
    1444:	fee42623          	sw	a4,-20(s0)
    1448:	00002737          	lui	a4,0x2
    144c:	38872703          	lw	a4,904(a4) # 2388 <uart_out>
    1450:	0007c783          	lbu	a5,0(a5)
    1454:	00f70023          	sb	a5,0(a4)
#   while (*str) {
    1458:	fec42783          	lw	a5,-20(s0)
    145c:	0007c783          	lbu	a5,0(a5)
    1460:	fc0792e3          	bnez	a5,1424 <uart_send_str+0x18>
#   }
# }
    1464:	00000013          	nop
    1468:	00000013          	nop
    146c:	01c12083          	lw	ra,28(sp)
    1470:	01812403          	lw	s0,24(sp)
    1474:	02010113          	addi	sp,sp,32
    1478:	00008067          	ret

0000147c <uart_send_hex_byte>:
# 
# void uart_send_hex_byte(const char ch) {
    147c:	fe010113          	addi	sp,sp,-32
    1480:	00112e23          	sw	ra,28(sp)
    1484:	00812c23          	sw	s0,24(sp)
    1488:	02010413          	addi	s0,sp,32
    148c:	00050793          	mv	a5,a0
    1490:	fef407a3          	sb	a5,-17(s0)
#   uart_send_hex_nibble((ch & 0xf0) >> 4);
    1494:	fef44783          	lbu	a5,-17(s0)
    1498:	0047d793          	srli	a5,a5,0x4
    149c:	0ff7f793          	zext.b	a5,a5
    14a0:	00078513          	mv	a0,a5
    14a4:	00000097          	auipc	ra,0x0
    14a8:	034080e7          	jalr	52(ra) # 14d8 <uart_send_hex_nibble>
#   uart_send_hex_nibble(ch & 0x0f);
    14ac:	fef44783          	lbu	a5,-17(s0)
    14b0:	00f7f793          	andi	a5,a5,15
    14b4:	0ff7f793          	zext.b	a5,a5
    14b8:	00078513          	mv	a0,a5
    14bc:	00000097          	auipc	ra,0x0
    14c0:	01c080e7          	jalr	28(ra) # 14d8 <uart_send_hex_nibble>
# }
    14c4:	00000013          	nop
    14c8:	01c12083          	lw	ra,28(sp)
    14cc:	01812403          	lw	s0,24(sp)
    14d0:	02010113          	addi	sp,sp,32
    14d4:	00008067          	ret

000014d8 <uart_send_hex_nibble>:
# 
# void uart_send_hex_nibble(const char nibble) {
    14d8:	fe010113          	addi	sp,sp,-32
    14dc:	00112e23          	sw	ra,28(sp)
    14e0:	00812c23          	sw	s0,24(sp)
    14e4:	02010413          	addi	s0,sp,32
    14e8:	00050793          	mv	a5,a0
    14ec:	fef407a3          	sb	a5,-17(s0)
#   if (nibble < 10) {
    14f0:	fef44703          	lbu	a4,-17(s0)
    14f4:	00900793          	li	a5,9
    14f8:	02e7e063          	bltu	a5,a4,1518 <uart_send_hex_nibble+0x40>
#     uart_send_char('0' + nibble);
    14fc:	fef44783          	lbu	a5,-17(s0)
    1500:	03078793          	addi	a5,a5,48
    1504:	0ff7f793          	zext.b	a5,a5
    1508:	00078513          	mv	a0,a5
    150c:	00000097          	auipc	ra,0x0
    1510:	038080e7          	jalr	56(ra) # 1544 <uart_send_char>
#   } else {
#     uart_send_char('A' + (nibble - 10));
#   }
# }
    1514:	01c0006f          	j	1530 <uart_send_hex_nibble+0x58>
#     uart_send_char('A' + (nibble - 10));
    1518:	fef44783          	lbu	a5,-17(s0)
    151c:	03778793          	addi	a5,a5,55
    1520:	0ff7f793          	zext.b	a5,a5
    1524:	00078513          	mv	a0,a5
    1528:	00000097          	auipc	ra,0x0
    152c:	01c080e7          	jalr	28(ra) # 1544 <uart_send_char>
# }
    1530:	00000013          	nop
    1534:	01c12083          	lw	ra,28(sp)
    1538:	01812403          	lw	s0,24(sp)
    153c:	02010113          	addi	sp,sp,32
    1540:	00008067          	ret

00001544 <uart_send_char>:
# 
# void uart_send_char(const char ch) {
    1544:	fe010113          	addi	sp,sp,-32
    1548:	00112e23          	sw	ra,28(sp)
    154c:	00812c23          	sw	s0,24(sp)
    1550:	02010413          	addi	s0,sp,32
    1554:	00050793          	mv	a5,a0
    1558:	fef407a3          	sb	a5,-17(s0)
#   while (*uart_out)
    155c:	00000013          	nop
    1560:	000027b7          	lui	a5,0x2
    1564:	3887a783          	lw	a5,904(a5) # 2388 <uart_out>
    1568:	0007c783          	lbu	a5,0(a5)
    156c:	0ff7f793          	zext.b	a5,a5
    1570:	fe0798e3          	bnez	a5,1560 <uart_send_char+0x1c>
#     ;
#   *uart_out = ch;
    1574:	000027b7          	lui	a5,0x2
    1578:	3887a783          	lw	a5,904(a5) # 2388 <uart_out>
    157c:	fef44703          	lbu	a4,-17(s0)
    1580:	00e78023          	sb	a4,0(a5)
# }
    1584:	00000013          	nop
    1588:	01c12083          	lw	ra,28(sp)
    158c:	01812403          	lw	s0,24(sp)
    1590:	02010113          	addi	sp,sp,32
    1594:	00008067          	ret

00001598 <uart_read_char>:
# 
# char uart_read_char() {
    1598:	fe010113          	addi	sp,sp,-32
    159c:	00112e23          	sw	ra,28(sp)
    15a0:	00812c23          	sw	s0,24(sp)
    15a4:	02010413          	addi	s0,sp,32
#   char ch;
#   while ((ch = *uart_in) == 0)
    15a8:	00000013          	nop
    15ac:	000027b7          	lui	a5,0x2
    15b0:	38c7a783          	lw	a5,908(a5) # 238c <uart_in>
    15b4:	0007c783          	lbu	a5,0(a5)
    15b8:	fef407a3          	sb	a5,-17(s0)
    15bc:	fef44783          	lbu	a5,-17(s0)
    15c0:	fe0786e3          	beqz	a5,15ac <uart_read_char+0x14>
#     ;
#   return ch;
    15c4:	fef44783          	lbu	a5,-17(s0)
# }
    15c8:	00078513          	mv	a0,a5
    15cc:	01c12083          	lw	ra,28(sp)
    15d0:	01812403          	lw	s0,24(sp)
    15d4:	02010113          	addi	sp,sp,32
    15d8:	00008067          	ret

000015dc <i2c_send>:
# 
# void i2c_send(unsigned char data) {
    15dc:	fe010113          	addi	sp,sp,-32
    15e0:	00112e23          	sw	ra,28(sp)
    15e4:	00812c23          	sw	s0,24(sp)
    15e8:	02010413          	addi	s0,sp,32
    15ec:	00050793          	mv	a5,a0
    15f0:	fef407a3          	sb	a5,-17(s0)
#   *i2c_data = data;
    15f4:	000027b7          	lui	a5,0x2
    15f8:	3907a783          	lw	a5,912(a5) # 2390 <i2c_data>
    15fc:	fef44703          	lbu	a4,-17(s0)
    1600:	00e78023          	sb	a4,0(a5)
#   *i2c_ctrl = 0x01;
    1604:	000027b7          	lui	a5,0x2
    1608:	3947a783          	lw	a5,916(a5) # 2394 <i2c_ctrl>
    160c:	00100713          	li	a4,1
    1610:	00e78023          	sb	a4,0(a5)
#   while (i2c_is_busy());
    1614:	00000013          	nop
    1618:	00000097          	auipc	ra,0x0
    161c:	028080e7          	jalr	40(ra) # 1640 <i2c_is_busy>
    1620:	00050793          	mv	a5,a0
    1624:	fe079ae3          	bnez	a5,1618 <i2c_send+0x3c>
# }
    1628:	00000013          	nop
    162c:	00000013          	nop
    1630:	01c12083          	lw	ra,28(sp)
    1634:	01812403          	lw	s0,24(sp)
    1638:	02010113          	addi	sp,sp,32
    163c:	00008067          	ret

00001640 <i2c_is_busy>:
# 
# unsigned char i2c_is_busy() {
    1640:	ff010113          	addi	sp,sp,-16
    1644:	00112623          	sw	ra,12(sp)
    1648:	00812423          	sw	s0,8(sp)
    164c:	01010413          	addi	s0,sp,16
#   return (*i2c_ctrl & 0x01);
    1650:	000027b7          	lui	a5,0x2
    1654:	3947a783          	lw	a5,916(a5) # 2394 <i2c_ctrl>
    1658:	0007c783          	lbu	a5,0(a5)
    165c:	0ff7f793          	zext.b	a5,a5
    1660:	0017f793          	andi	a5,a5,1
    1664:	0ff7f793          	zext.b	a5,a5
# }
    1668:	00078513          	mv	a0,a5
    166c:	00c12083          	lw	ra,12(sp)
    1670:	00812403          	lw	s0,8(sp)
    1674:	01010113          	addi	sp,sp,16
    1678:	00008067          	ret

0000167c <i2c_is_done>:
# 
# unsigned char i2c_is_done() {
    167c:	ff010113          	addi	sp,sp,-16
    1680:	00112623          	sw	ra,12(sp)
    1684:	00812423          	sw	s0,8(sp)
    1688:	01010413          	addi	s0,sp,16
#   return (*i2c_ctrl & 0x02) >> 1;
    168c:	000027b7          	lui	a5,0x2
    1690:	3947a783          	lw	a5,916(a5) # 2394 <i2c_ctrl>
    1694:	0007c783          	lbu	a5,0(a5)
    1698:	0ff7f793          	zext.b	a5,a5
    169c:	4017d793          	srai	a5,a5,0x1
    16a0:	0ff7f793          	zext.b	a5,a5
    16a4:	0017f793          	andi	a5,a5,1
    16a8:	0ff7f793          	zext.b	a5,a5
# }
    16ac:	00078513          	mv	a0,a5
    16b0:	00c12083          	lw	ra,12(sp)
    16b4:	00812403          	lw	s0,8(sp)
    16b8:	01010113          	addi	sp,sp,16
    16bc:	00008067          	ret

000016c0 <delay_ms>:
# 
# void delay_ms(unsigned int ms) {
    16c0:	fd010113          	addi	sp,sp,-48
    16c4:	02112623          	sw	ra,44(sp)
    16c8:	02812423          	sw	s0,40(sp)
    16cc:	03010413          	addi	s0,sp,48
    16d0:	fca42e23          	sw	a0,-36(s0)
#   volatile unsigned int i, j;
#   for (i = 0; i < ms; i++)
    16d4:	fe042623          	sw	zero,-20(s0)
    16d8:	0300006f          	j	1708 <delay_ms+0x48>
#     for (j = 0; j < 1000; j++);
    16dc:	fe042423          	sw	zero,-24(s0)
    16e0:	0100006f          	j	16f0 <delay_ms+0x30>
    16e4:	fe842783          	lw	a5,-24(s0)
    16e8:	00178793          	addi	a5,a5,1
    16ec:	fef42423          	sw	a5,-24(s0)
    16f0:	fe842703          	lw	a4,-24(s0)
    16f4:	3e700793          	li	a5,999
    16f8:	fee7f6e3          	bgeu	a5,a4,16e4 <delay_ms+0x24>
#   for (i = 0; i < ms; i++)
    16fc:	fec42783          	lw	a5,-20(s0)
    1700:	00178793          	addi	a5,a5,1
    1704:	fef42623          	sw	a5,-20(s0)
    1708:	fec42783          	lw	a5,-20(s0)
    170c:	fdc42703          	lw	a4,-36(s0)
    1710:	fce7e6e3          	bltu	a5,a4,16dc <delay_ms+0x1c>
# }
    1714:	00000013          	nop
    1718:	00000013          	nop
    171c:	02c12083          	lw	ra,44(sp)
    1720:	02812403          	lw	s0,40(sp)
    1724:	03010113          	addi	sp,sp,48
    1728:	00008067          	ret

0000172c <bmp280_init>:
# 
# void bmp280_init() {
    172c:	ff010113          	addi	sp,sp,-16
    1730:	00112623          	sw	ra,12(sp)
    1734:	00812423          	sw	s0,8(sp)
    1738:	01010413          	addi	s0,sp,16
#   uart_send_str("Initializing BMP280...\r\n");
    173c:	000027b7          	lui	a5,0x2
    1740:	bd878513          	addi	a0,a5,-1064 # 1bd8 <bmp280_read_temp+0x408>
    1744:	00000097          	auipc	ra,0x0
    1748:	cc8080e7          	jalr	-824(ra) # 140c <uart_send_str>
# 
#   uart_send_str("BMP280 Address: 0x");
    174c:	000027b7          	lui	a5,0x2
    1750:	bf478513          	addi	a0,a5,-1036 # 1bf4 <bmp280_read_temp+0x424>
    1754:	00000097          	auipc	ra,0x0
    1758:	cb8080e7          	jalr	-840(ra) # 140c <uart_send_str>
#   uart_send_hex_byte(BMP280_ADDR << 1);
    175c:	0ec00513          	li	a0,236
    1760:	00000097          	auipc	ra,0x0
    1764:	d1c080e7          	jalr	-740(ra) # 147c <uart_send_hex_byte>
#   uart_send_str("\r\n");
    1768:	000027b7          	lui	a5,0x2
    176c:	95478513          	addi	a0,a5,-1708 # 1954 <bmp280_read_temp+0x184>
    1770:	00000097          	auipc	ra,0x0
    1774:	c9c080e7          	jalr	-868(ra) # 140c <uart_send_str>
# 
#   i2c_send(BMP280_REG_CTRL_MEAS);
    1778:	0f400513          	li	a0,244
    177c:	00000097          	auipc	ra,0x0
    1780:	e60080e7          	jalr	-416(ra) # 15dc <i2c_send>
#   delay_ms(10);
    1784:	00a00513          	li	a0,10
    1788:	00000097          	auipc	ra,0x0
    178c:	f38080e7          	jalr	-200(ra) # 16c0 <delay_ms>
#   i2c_send(0x27);
    1790:	02700513          	li	a0,39
    1794:	00000097          	auipc	ra,0x0
    1798:	e48080e7          	jalr	-440(ra) # 15dc <i2c_send>
# 
#   uart_send_str("BMP280 Initialized\r\n");
    179c:	000027b7          	lui	a5,0x2
    17a0:	c0878513          	addi	a0,a5,-1016 # 1c08 <bmp280_read_temp+0x438>
    17a4:	00000097          	auipc	ra,0x0
    17a8:	c68080e7          	jalr	-920(ra) # 140c <uart_send_str>
#   uart_send_str("\r\n");
    17ac:	000027b7          	lui	a5,0x2
    17b0:	95478513          	addi	a0,a5,-1708 # 1954 <bmp280_read_temp+0x184>
    17b4:	00000097          	auipc	ra,0x0
    17b8:	c58080e7          	jalr	-936(ra) # 140c <uart_send_str>
# }
    17bc:	00000013          	nop
    17c0:	00c12083          	lw	ra,12(sp)
    17c4:	00812403          	lw	s0,8(sp)
    17c8:	01010113          	addi	sp,sp,16
    17cc:	00008067          	ret

000017d0 <bmp280_read_temp>:
# 
# void bmp280_read_temp() {
    17d0:	ff010113          	addi	sp,sp,-16
    17d4:	00112623          	sw	ra,12(sp)
    17d8:	00812423          	sw	s0,8(sp)
    17dc:	01010413          	addi	s0,sp,16
#   uart_send_str("Reading BMP280 sensor...\r\n");
    17e0:	000027b7          	lui	a5,0x2
    17e4:	c2078513          	addi	a0,a5,-992 # 1c20 <bmp280_read_temp+0x450>
    17e8:	00000097          	auipc	ra,0x0
    17ec:	c24080e7          	jalr	-988(ra) # 140c <uart_send_str>
# 
#   i2c_send(BMP280_REG_TEMP_MSB);
    17f0:	0fa00513          	li	a0,250
    17f4:	00000097          	auipc	ra,0x0
    17f8:	de8080e7          	jalr	-536(ra) # 15dc <i2c_send>
#   delay_ms(5);
    17fc:	00500513          	li	a0,5
    1800:	00000097          	auipc	ra,0x0
    1804:	ec0080e7          	jalr	-320(ra) # 16c0 <delay_ms>
# 
#   uart_send_str("BMP280 Data Read\r\n");
    1808:	000027b7          	lui	a5,0x2
    180c:	c3c78513          	addi	a0,a5,-964 # 1c3c <bmp280_read_temp+0x46c>
    1810:	00000097          	auipc	ra,0x0
    1814:	bfc080e7          	jalr	-1028(ra) # 140c <uart_send_str>
#   uart_send_str("Sensor Address: 0x");
    1818:	000027b7          	lui	a5,0x2
    181c:	c5078513          	addi	a0,a5,-944 # 1c50 <bmp280_read_temp+0x480>
    1820:	00000097          	auipc	ra,0x0
    1824:	bec080e7          	jalr	-1044(ra) # 140c <uart_send_str>
#   uart_send_hex_byte(BMP280_ADDR);
    1828:	07600513          	li	a0,118
    182c:	00000097          	auipc	ra,0x0
    1830:	c50080e7          	jalr	-944(ra) # 147c <uart_send_hex_byte>
#   uart_send_str("\r\n");
    1834:	000027b7          	lui	a5,0x2
    1838:	95478513          	addi	a0,a5,-1708 # 1954 <bmp280_read_temp+0x184>
    183c:	00000097          	auipc	ra,0x0
    1840:	bd0080e7          	jalr	-1072(ra) # 140c <uart_send_str>
#   uart_send_str("Register: 0x");
    1844:	000027b7          	lui	a5,0x2
    1848:	c6478513          	addi	a0,a5,-924 # 1c64 <bmp280_read_temp+0x494>
    184c:	00000097          	auipc	ra,0x0
    1850:	bc0080e7          	jalr	-1088(ra) # 140c <uart_send_str>
#   uart_send_hex_byte(BMP280_REG_TEMP_MSB);
    1854:	0fa00513          	li	a0,250
    1858:	00000097          	auipc	ra,0x0
    185c:	c24080e7          	jalr	-988(ra) # 147c <uart_send_hex_byte>
#   uart_send_str("\r\n");
    1860:	000027b7          	lui	a5,0x2
    1864:	95478513          	addi	a0,a5,-1708 # 1954 <bmp280_read_temp+0x184>
    1868:	00000097          	auipc	ra,0x0
    186c:	ba4080e7          	jalr	-1116(ra) # 140c <uart_send_str>
# }
    1870:	00000013          	nop
    1874:	00c12083          	lw	ra,12(sp)
    1878:	00812403          	lw	s0,8(sp)
    187c:	01010113          	addi	sp,sp,16
    1880:	00008067          	ret
